

Microchip MPLAB XC8 Assembler V3.00 build 20241204225717 
                                                                                               Mon Sep 29 15:59:11 2025

Microchip MPLAB XC8 C Compiler v3.00 (Free license) build 20241204225717 Og1 
     1                           	processor	18F4550
     2                           	fnconf	rparam,??,?,0
     3                           	pagewidth 120
     4                           	opt	flic
     5                           	psect	cinit,global,reloc=2,class=CODE,space=0,delta=1
     6                           	psect	bssBIGRAM,global,class=BIGRAM,space=1,delta=1,noexec
     7                           	psect	cstackBANK0,global,class=BANK0,space=1,delta=1,lowdata,noexec
     8                           	psect	cstackCOMRAM,global,class=COMRAM,space=1,delta=1,lowdata,noexec
     9                           	psect	text0,global,reloc=2,class=CODE,space=0,delta=1
    10                           	psect	text1,global,reloc=2,class=CODE,space=0,delta=1
    11                           	psect	text2,global,reloc=2,class=CODE,space=0,delta=1
    12                           	psect	text3,global,reloc=2,class=CODE,space=0,delta=1
    13                           	psect	text4,global,reloc=2,class=CODE,space=0,delta=1
    14                           	psect	text5,global,reloc=2,class=CODE,space=0,delta=1
    15                           	psect	text6,global,reloc=2,class=CODE,space=0,delta=1
    16                           	psect	text7,global,reloc=2,class=CODE,space=0,delta=1
    17                           	psect	text8,global,reloc=2,class=CODE,space=0,delta=1
    18                           	psect	text9,global,reloc=2,class=CODE,space=0,delta=1
    19                           	psect	text10,global,reloc=2,class=CODE,space=0,delta=1
    20                           	psect	text11,global,reloc=2,class=CODE,space=0,delta=1
    21                           	psect	text12,global,reloc=2,class=CODE,space=0,delta=1
    22                           	psect	text13,global,reloc=2,class=CODE,space=0,delta=1
    23                           	psect	text14,global,reloc=2,class=CODE,space=0,delta=1
    24                           	psect	intcode,global,reloc=2,class=CODE,space=0,delta=1
    25                           	psect	intcode_body,global,reloc=2,class=CODE,space=0,delta=1
    26                           	psect	text16,global,reloc=2,class=CODE,space=0,delta=1
    27                           	psect	text17,global,reloc=2,class=CODE,space=0,delta=1
    28                           	psect	text18,global,reloc=2,class=CODE,space=0,delta=1
    29                           	psect	text19,global,reloc=2,class=CODE,space=0,delta=1,group=1
    30                           	psect	text20,global,reloc=2,class=CODE,space=0,delta=1
    31                           	psect	smallconst,global,reloc=2,class=SMALLCONST,space=0,delta=1,noexec
    32                           	psect	intsave_regs,global,class=BIGRAM,space=1,delta=1,noexec
    33                           	psect	rparam,global,class=COMRAM,space=1,delta=1,noexec
    34                           	psect	temp,global,ovrld,common,class=COMRAM,space=1,delta=1,lowdata
    35   000000                     
    36                           ; Generated 17/01/2025 GMT
    37                           ; 
    38                           ; Copyright © 2025, Microchip Technology Inc. and its subsidiaries ("Microchip")
    39                           ; All rights reserved.
    40                           ; 
    41                           ; This software is developed by Microchip Technology Inc. and its subsidiaries ("Microch
      +                          ip").
    42                           ; 
    43                           ; Redistribution and use in source and binary forms, with or without modification, are
    44                           ; permitted provided that the following conditions are met:
    45                           ; 
    46                           ;     1. Redistributions of source code must retain the above copyright notice, this lis
      +                          t of
    47                           ;        conditions and the following disclaimer.
    48                           ; 
    49                           ;     2. Redistributions in binary form must reproduce the above copyright notice, this 
      +                          list
    50                           ;        of conditions and the following disclaimer in the documentation and/or other
    51                           ;        materials provided with the distribution. Publication is not required when
    52                           ;        this file is used in an embedded application.
    53                           ; 
    54                           ;     3. Microchip's name may not be used to endorse or promote products derived from th
      +                          is
    55                           ;        software without specific prior written permission.
    56                           ; 
    57                           ; THIS SOFTWARE IS PROVIDED BY MICROCHIP "AS IS" AND ANY EXPRESS OR IMPLIED WARRANTIES,
    58                           ; INCLUDING, BUT NOT LIMITED TO, THE IMPLIED WARRANTIES OF MERCHANTABILITY AND FITNESS F
      +                          OR
    59                           ; PURPOSE ARE DISCLAIMED.  IN NO EVENT SHALL MICROCHIP BE LIABLE FOR ANY DIRECT, INDIREC
      +                          T,
    60                           ; INCIDENTAL, SPECIAL, EXEMPLARY, OR CONSEQUENTIAL DAMAGES (INCLUDING BUT NOT LIMITED TO
    61                           ; PROCUREMENT OF SUBSTITUTE GOODS OR SERVICES; LOSS OF USE, DATA OR PROFITS; OR BUSINESS
    62                           ; INTERRUPTION) HOWSOEVER CAUSED AND ON ANY THEORY OF LIABILITY, WHETHER IN CONTRACT, ST
      +                          RICT
    63                           ; LIABILITY, OR TORT (INCLUDING NEGLIGENCE OR OTHERWISE) ARISING IN ANY WAY OUT OF THE U
      +                          SE OF
    64                           ; THIS SOFTWARE, EVEN IF ADVISED OF THE POSSIBILITY OF SUCH DAMAGE.
    65                           ; 
    66                           ; 
    67                           ; Code-generator required, PIC18F4550 Definitions
    68                           ; 
    69                           ; SFR Addresses
    70   000FE0                     bsr             equ	4064
    71   000FE9                     fsr0            equ	4073
    72   000FEA                     fsr0h           equ	4074
    73   000FE9                     fsr0l           equ	4073
    74   000FE1                     fsr1            equ	4065
    75   000FE2                     fsr1h           equ	4066
    76   000FE1                     fsr1l           equ	4065
    77   000FD9                     fsr2            equ	4057
    78   000FDA                     fsr2h           equ	4058
    79   000FD9                     fsr2l           equ	4057
    80   000FEF                     indf0           equ	4079
    81   000FE7                     indf1           equ	4071
    82   000FDF                     indf2           equ	4063
    83   000FF2                     intcon          equ	4082
    84   000000                     nvmcon          equ	0
    85   000FF9                     pcl             equ	4089
    86   000FFA                     pclath          equ	4090
    87   000FFB                     pclatu          equ	4091
    88   000FEB                     plusw0          equ	4075
    89   000FE3                     plusw1          equ	4067
    90   000FDB                     plusw2          equ	4059
    91   000FED                     postdec0        equ	4077
    92   000FE5                     postdec1        equ	4069
    93   000FDD                     postdec2        equ	4061
    94   000FEE                     postinc0        equ	4078
    95   000FE6                     postinc1        equ	4070
    96   000FDE                     postinc2        equ	4062
    97   000FEC                     preinc0         equ	4076
    98   000FE4                     preinc1         equ	4068
    99   000FDC                     preinc2         equ	4060
   100   000FF3                     prod            equ	4083
   101   000FF4                     prodh           equ	4084
   102   000FF3                     prodl           equ	4083
   103   000FD8                     status          equ	4056
   104   000FF5                     tablat          equ	4085
   105   000FF6                     tblptr          equ	4086
   106   000FF7                     tblptrh         equ	4087
   107   000FF6                     tblptrl         equ	4086
   108   000FF8                     tblptru         equ	4088
   109   000FFD                     tosl            equ	4093
   110   000FE8                     wreg            equ	4072
   111   000F62                     SPPDATA         equ	3938	;# 
   112   000F63                     SPPCFG          equ	3939	;# 
   113   000F64                     SPPEPS          equ	3940	;# 
   114   000F65                     SPPCON          equ	3941	;# 
   115   000F66                     UFRM            equ	3942	;# 
   116   000F66                     UFRML           equ	3942	;# 
   117   000F67                     UFRMH           equ	3943	;# 
   118   000F68                     UIR             equ	3944	;# 
   119   000F69                     UIE             equ	3945	;# 
   120   000F6A                     UEIR            equ	3946	;# 
   121   000F6B                     UEIE            equ	3947	;# 
   122   000F6C                     USTAT           equ	3948	;# 
   123   000F6D                     UCON            equ	3949	;# 
   124   000F6E                     UADDR           equ	3950	;# 
   125   000F6F                     UCFG            equ	3951	;# 
   126   000F70                     UEP0            equ	3952	;# 
   127   000F71                     UEP1            equ	3953	;# 
   128   000F72                     UEP2            equ	3954	;# 
   129   000F73                     UEP3            equ	3955	;# 
   130   000F74                     UEP4            equ	3956	;# 
   131   000F75                     UEP5            equ	3957	;# 
   132   000F76                     UEP6            equ	3958	;# 
   133   000F77                     UEP7            equ	3959	;# 
   134   000F78                     UEP8            equ	3960	;# 
   135   000F79                     UEP9            equ	3961	;# 
   136   000F7A                     UEP10           equ	3962	;# 
   137   000F7B                     UEP11           equ	3963	;# 
   138   000F7C                     UEP12           equ	3964	;# 
   139   000F7D                     UEP13           equ	3965	;# 
   140   000F7E                     UEP14           equ	3966	;# 
   141   000F7F                     UEP15           equ	3967	;# 
   142   000F80                     PORTA           equ	3968	;# 
   143   000F81                     PORTB           equ	3969	;# 
   144   000F82                     PORTC           equ	3970	;# 
   145   000F83                     PORTD           equ	3971	;# 
   146   000F84                     PORTE           equ	3972	;# 
   147   000F89                     LATA            equ	3977	;# 
   148   000F8A                     LATB            equ	3978	;# 
   149   000F8B                     LATC            equ	3979	;# 
   150   000F8C                     LATD            equ	3980	;# 
   151   000F8D                     LATE            equ	3981	;# 
   152   000F92                     TRISA           equ	3986	;# 
   153   000F92                     DDRA            equ	3986	;# 
   154   000F93                     TRISB           equ	3987	;# 
   155   000F93                     DDRB            equ	3987	;# 
   156   000F94                     TRISC           equ	3988	;# 
   157   000F94                     DDRC            equ	3988	;# 
   158   000F95                     TRISD           equ	3989	;# 
   159   000F95                     DDRD            equ	3989	;# 
   160   000F96                     TRISE           equ	3990	;# 
   161   000F96                     DDRE            equ	3990	;# 
   162   000F9B                     OSCTUNE         equ	3995	;# 
   163   000F9D                     PIE1            equ	3997	;# 
   164   000F9E                     PIR1            equ	3998	;# 
   165   000F9F                     IPR1            equ	3999	;# 
   166   000FA0                     PIE2            equ	4000	;# 
   167   000FA1                     PIR2            equ	4001	;# 
   168   000FA2                     IPR2            equ	4002	;# 
   169   000FA6                     EECON1          equ	4006	;# 
   170   000FA7                     EECON2          equ	4007	;# 
   171   000FA8                     EEDATA          equ	4008	;# 
   172   000FA9                     EEADR           equ	4009	;# 
   173   000FAB                     RCSTA           equ	4011	;# 
   174   000FAB                     RCSTA1          equ	4011	;# 
   175   000FAC                     TXSTA           equ	4012	;# 
   176   000FAC                     TXSTA1          equ	4012	;# 
   177   000FAD                     TXREG           equ	4013	;# 
   178   000FAD                     TXREG1          equ	4013	;# 
   179   000FAE                     RCREG           equ	4014	;# 
   180   000FAE                     RCREG1          equ	4014	;# 
   181   000FAF                     SPBRG           equ	4015	;# 
   182   000FAF                     SPBRG1          equ	4015	;# 
   183   000FB0                     SPBRGH          equ	4016	;# 
   184   000FB1                     T3CON           equ	4017	;# 
   185   000FB2                     TMR3            equ	4018	;# 
   186   000FB2                     TMR3L           equ	4018	;# 
   187   000FB3                     TMR3H           equ	4019	;# 
   188   000FB4                     CMCON           equ	4020	;# 
   189   000FB5                     CVRCON          equ	4021	;# 
   190   000FB6                     ECCP1AS         equ	4022	;# 
   191   000FB6                     CCP1AS          equ	4022	;# 
   192   000FB7                     ECCP1DEL        equ	4023	;# 
   193   000FB7                     CCP1DEL         equ	4023	;# 
   194   000FB8                     BAUDCON         equ	4024	;# 
   195   000FB8                     BAUDCTL         equ	4024	;# 
   196   000FBA                     CCP2CON         equ	4026	;# 
   197   000FBB                     CCPR2           equ	4027	;# 
   198   000FBB                     CCPR2L          equ	4027	;# 
   199   000FBC                     CCPR2H          equ	4028	;# 
   200   000FBD                     CCP1CON         equ	4029	;# 
   201   000FBD                     ECCP1CON        equ	4029	;# 
   202   000FBE                     CCPR1           equ	4030	;# 
   203   000FBE                     CCPR1L          equ	4030	;# 
   204   000FBF                     CCPR1H          equ	4031	;# 
   205   000FC0                     ADCON2          equ	4032	;# 
   206   000FC1                     ADCON1          equ	4033	;# 
   207   000FC2                     ADCON0          equ	4034	;# 
   208   000FC3                     ADRES           equ	4035	;# 
   209   000FC3                     ADRESL          equ	4035	;# 
   210   000FC4                     ADRESH          equ	4036	;# 
   211   000FC5                     SSPCON2         equ	4037	;# 
   212   000FC6                     SSPCON1         equ	4038	;# 
   213   000FC7                     SSPSTAT         equ	4039	;# 
   214   000FC8                     SSPADD          equ	4040	;# 
   215   000FC9                     SSPBUF          equ	4041	;# 
   216   000FCA                     T2CON           equ	4042	;# 
   217   000FCB                     PR2             equ	4043	;# 
   218   000FCB                     MEMCON          equ	4043	;# 
   219   000FCC                     TMR2            equ	4044	;# 
   220   000FCD                     T1CON           equ	4045	;# 
   221   000FCE                     TMR1            equ	4046	;# 
   222   000FCE                     TMR1L           equ	4046	;# 
   223   000FCF                     TMR1H           equ	4047	;# 
   224   000FD0                     RCON            equ	4048	;# 
   225   000FD1                     WDTCON          equ	4049	;# 
   226   000FD2                     HLVDCON         equ	4050	;# 
   227   000FD2                     LVDCON          equ	4050	;# 
   228   000FD3                     OSCCON          equ	4051	;# 
   229   000FD5                     T0CON           equ	4053	;# 
   230   000FD6                     TMR0            equ	4054	;# 
   231   000FD6                     TMR0L           equ	4054	;# 
   232   000FD7                     TMR0H           equ	4055	;# 
   233   000FD8                     STATUS          equ	4056	;# 
   234   000FD9                     FSR2            equ	4057	;# 
   235   000FD9                     FSR2L           equ	4057	;# 
   236   000FDA                     FSR2H           equ	4058	;# 
   237   000FDB                     PLUSW2          equ	4059	;# 
   238   000FDC                     PREINC2         equ	4060	;# 
   239   000FDD                     POSTDEC2        equ	4061	;# 
   240   000FDE                     POSTINC2        equ	4062	;# 
   241   000FDF                     INDF2           equ	4063	;# 
   242   000FE0                     BSR             equ	4064	;# 
   243   000FE1                     FSR1            equ	4065	;# 
   244   000FE1                     FSR1L           equ	4065	;# 
   245   000FE2                     FSR1H           equ	4066	;# 
   246   000FE3                     PLUSW1          equ	4067	;# 
   247   000FE4                     PREINC1         equ	4068	;# 
   248   000FE5                     POSTDEC1        equ	4069	;# 
   249   000FE6                     POSTINC1        equ	4070	;# 
   250   000FE7                     INDF1           equ	4071	;# 
   251   000FE8                     WREG            equ	4072	;# 
   252   000FE9                     FSR0            equ	4073	;# 
   253   000FE9                     FSR0L           equ	4073	;# 
   254   000FEA                     FSR0H           equ	4074	;# 
   255   000FEB                     PLUSW0          equ	4075	;# 
   256   000FEC                     PREINC0         equ	4076	;# 
   257   000FED                     POSTDEC0        equ	4077	;# 
   258   000FEE                     POSTINC0        equ	4078	;# 
   259   000FEF                     INDF0           equ	4079	;# 
   260   000FF0                     INTCON3         equ	4080	;# 
   261   000FF1                     INTCON2         equ	4081	;# 
   262   000FF2                     INTCON          equ	4082	;# 
   263   000FF3                     PROD            equ	4083	;# 
   264   000FF3                     PRODL           equ	4083	;# 
   265   000FF4                     PRODH           equ	4084	;# 
   266   000FF5                     TABLAT          equ	4085	;# 
   267   000FF6                     TBLPTR          equ	4086	;# 
   268   000FF6                     TBLPTRL         equ	4086	;# 
   269   000FF7                     TBLPTRH         equ	4087	;# 
   270   000FF8                     TBLPTRU         equ	4088	;# 
   271   000FF9                     PCLAT           equ	4089	;# 
   272   000FF9                     PC              equ	4089	;# 
   273   000FF9                     PCL             equ	4089	;# 
   274   000FFA                     PCLATH          equ	4090	;# 
   275   000FFB                     PCLATU          equ	4091	;# 
   276   000FFC                     STKPTR          equ	4092	;# 
   277   000FFD                     TOS             equ	4093	;# 
   278   000FFD                     TOSL            equ	4093	;# 
   279   000FFE                     TOSH            equ	4094	;# 
   280   000FFF                     TOSU            equ	4095	;# 
   281   000F62                     SPPDATA         equ	3938	;# 
   282   000F63                     SPPCFG          equ	3939	;# 
   283   000F64                     SPPEPS          equ	3940	;# 
   284   000F65                     SPPCON          equ	3941	;# 
   285   000F66                     UFRM            equ	3942	;# 
   286   000F66                     UFRML           equ	3942	;# 
   287   000F67                     UFRMH           equ	3943	;# 
   288   000F68                     UIR             equ	3944	;# 
   289   000F69                     UIE             equ	3945	;# 
   290   000F6A                     UEIR            equ	3946	;# 
   291   000F6B                     UEIE            equ	3947	;# 
   292   000F6C                     USTAT           equ	3948	;# 
   293   000F6D                     UCON            equ	3949	;# 
   294   000F6E                     UADDR           equ	3950	;# 
   295   000F6F                     UCFG            equ	3951	;# 
   296   000F70                     UEP0            equ	3952	;# 
   297   000F71                     UEP1            equ	3953	;# 
   298   000F72                     UEP2            equ	3954	;# 
   299   000F73                     UEP3            equ	3955	;# 
   300   000F74                     UEP4            equ	3956	;# 
   301   000F75                     UEP5            equ	3957	;# 
   302   000F76                     UEP6            equ	3958	;# 
   303   000F77                     UEP7            equ	3959	;# 
   304   000F78                     UEP8            equ	3960	;# 
   305   000F79                     UEP9            equ	3961	;# 
   306   000F7A                     UEP10           equ	3962	;# 
   307   000F7B                     UEP11           equ	3963	;# 
   308   000F7C                     UEP12           equ	3964	;# 
   309   000F7D                     UEP13           equ	3965	;# 
   310   000F7E                     UEP14           equ	3966	;# 
   311   000F7F                     UEP15           equ	3967	;# 
   312   000F80                     PORTA           equ	3968	;# 
   313   000F81                     PORTB           equ	3969	;# 
   314   000F82                     PORTC           equ	3970	;# 
   315   000F83                     PORTD           equ	3971	;# 
   316   000F84                     PORTE           equ	3972	;# 
   317   000F89                     LATA            equ	3977	;# 
   318   000F8A                     LATB            equ	3978	;# 
   319   000F8B                     LATC            equ	3979	;# 
   320   000F8C                     LATD            equ	3980	;# 
   321   000F8D                     LATE            equ	3981	;# 
   322   000F92                     TRISA           equ	3986	;# 
   323   000F92                     DDRA            equ	3986	;# 
   324   000F93                     TRISB           equ	3987	;# 
   325   000F93                     DDRB            equ	3987	;# 
   326   000F94                     TRISC           equ	3988	;# 
   327   000F94                     DDRC            equ	3988	;# 
   328   000F95                     TRISD           equ	3989	;# 
   329   000F95                     DDRD            equ	3989	;# 
   330   000F96                     TRISE           equ	3990	;# 
   331   000F96                     DDRE            equ	3990	;# 
   332   000F9B                     OSCTUNE         equ	3995	;# 
   333   000F9D                     PIE1            equ	3997	;# 
   334   000F9E                     PIR1            equ	3998	;# 
   335   000F9F                     IPR1            equ	3999	;# 
   336   000FA0                     PIE2            equ	4000	;# 
   337   000FA1                     PIR2            equ	4001	;# 
   338   000FA2                     IPR2            equ	4002	;# 
   339   000FA6                     EECON1          equ	4006	;# 
   340   000FA7                     EECON2          equ	4007	;# 
   341   000FA8                     EEDATA          equ	4008	;# 
   342   000FA9                     EEADR           equ	4009	;# 
   343   000FAB                     RCSTA           equ	4011	;# 
   344   000FAB                     RCSTA1          equ	4011	;# 
   345   000FAC                     TXSTA           equ	4012	;# 
   346   000FAC                     TXSTA1          equ	4012	;# 
   347   000FAD                     TXREG           equ	4013	;# 
   348   000FAD                     TXREG1          equ	4013	;# 
   349   000FAE                     RCREG           equ	4014	;# 
   350   000FAE                     RCREG1          equ	4014	;# 
   351   000FAF                     SPBRG           equ	4015	;# 
   352   000FAF                     SPBRG1          equ	4015	;# 
   353   000FB0                     SPBRGH          equ	4016	;# 
   354   000FB1                     T3CON           equ	4017	;# 
   355   000FB2                     TMR3            equ	4018	;# 
   356   000FB2                     TMR3L           equ	4018	;# 
   357   000FB3                     TMR3H           equ	4019	;# 
   358   000FB4                     CMCON           equ	4020	;# 
   359   000FB5                     CVRCON          equ	4021	;# 
   360   000FB6                     ECCP1AS         equ	4022	;# 
   361   000FB6                     CCP1AS          equ	4022	;# 
   362   000FB7                     ECCP1DEL        equ	4023	;# 
   363   000FB7                     CCP1DEL         equ	4023	;# 
   364   000FB8                     BAUDCON         equ	4024	;# 
   365   000FB8                     BAUDCTL         equ	4024	;# 
   366   000FBA                     CCP2CON         equ	4026	;# 
   367   000FBB                     CCPR2           equ	4027	;# 
   368   000FBB                     CCPR2L          equ	4027	;# 
   369   000FBC                     CCPR2H          equ	4028	;# 
   370   000FBD                     CCP1CON         equ	4029	;# 
   371   000FBD                     ECCP1CON        equ	4029	;# 
   372   000FBE                     CCPR1           equ	4030	;# 
   373   000FBE                     CCPR1L          equ	4030	;# 
   374   000FBF                     CCPR1H          equ	4031	;# 
   375   000FC0                     ADCON2          equ	4032	;# 
   376   000FC1                     ADCON1          equ	4033	;# 
   377   000FC2                     ADCON0          equ	4034	;# 
   378   000FC3                     ADRES           equ	4035	;# 
   379   000FC3                     ADRESL          equ	4035	;# 
   380   000FC4                     ADRESH          equ	4036	;# 
   381   000FC5                     SSPCON2         equ	4037	;# 
   382   000FC6                     SSPCON1         equ	4038	;# 
   383   000FC7                     SSPSTAT         equ	4039	;# 
   384   000FC8                     SSPADD          equ	4040	;# 
   385   000FC9                     SSPBUF          equ	4041	;# 
   386   000FCA                     T2CON           equ	4042	;# 
   387   000FCB                     PR2             equ	4043	;# 
   388   000FCB                     MEMCON          equ	4043	;# 
   389   000FCC                     TMR2            equ	4044	;# 
   390   000FCD                     T1CON           equ	4045	;# 
   391   000FCE                     TMR1            equ	4046	;# 
   392   000FCE                     TMR1L           equ	4046	;# 
   393   000FCF                     TMR1H           equ	4047	;# 
   394   000FD0                     RCON            equ	4048	;# 
   395   000FD1                     WDTCON          equ	4049	;# 
   396   000FD2                     HLVDCON         equ	4050	;# 
   397   000FD2                     LVDCON          equ	4050	;# 
   398   000FD3                     OSCCON          equ	4051	;# 
   399   000FD5                     T0CON           equ	4053	;# 
   400   000FD6                     TMR0            equ	4054	;# 
   401   000FD6                     TMR0L           equ	4054	;# 
   402   000FD7                     TMR0H           equ	4055	;# 
   403   000FD8                     STATUS          equ	4056	;# 
   404   000FD9                     FSR2            equ	4057	;# 
   405   000FD9                     FSR2L           equ	4057	;# 
   406   000FDA                     FSR2H           equ	4058	;# 
   407   000FDB                     PLUSW2          equ	4059	;# 
   408   000FDC                     PREINC2         equ	4060	;# 
   409   000FDD                     POSTDEC2        equ	4061	;# 
   410   000FDE                     POSTINC2        equ	4062	;# 
   411   000FDF                     INDF2           equ	4063	;# 
   412   000FE0                     BSR             equ	4064	;# 
   413   000FE1                     FSR1            equ	4065	;# 
   414   000FE1                     FSR1L           equ	4065	;# 
   415   000FE2                     FSR1H           equ	4066	;# 
   416   000FE3                     PLUSW1          equ	4067	;# 
   417   000FE4                     PREINC1         equ	4068	;# 
   418   000FE5                     POSTDEC1        equ	4069	;# 
   419   000FE6                     POSTINC1        equ	4070	;# 
   420   000FE7                     INDF1           equ	4071	;# 
   421   000FE8                     WREG            equ	4072	;# 
   422   000FE9                     FSR0            equ	4073	;# 
   423   000FE9                     FSR0L           equ	4073	;# 
   424   000FEA                     FSR0H           equ	4074	;# 
   425   000FEB                     PLUSW0          equ	4075	;# 
   426   000FEC                     PREINC0         equ	4076	;# 
   427   000FED                     POSTDEC0        equ	4077	;# 
   428   000FEE                     POSTINC0        equ	4078	;# 
   429   000FEF                     INDF0           equ	4079	;# 
   430   000FF0                     INTCON3         equ	4080	;# 
   431   000FF1                     INTCON2         equ	4081	;# 
   432   000FF2                     INTCON          equ	4082	;# 
   433   000FF3                     PROD            equ	4083	;# 
   434   000FF3                     PRODL           equ	4083	;# 
   435   000FF4                     PRODH           equ	4084	;# 
   436   000FF5                     TABLAT          equ	4085	;# 
   437   000FF6                     TBLPTR          equ	4086	;# 
   438   000FF6                     TBLPTRL         equ	4086	;# 
   439   000FF7                     TBLPTRH         equ	4087	;# 
   440   000FF8                     TBLPTRU         equ	4088	;# 
   441   000FF9                     PCLAT           equ	4089	;# 
   442   000FF9                     PC              equ	4089	;# 
   443   000FF9                     PCL             equ	4089	;# 
   444   000FFA                     PCLATH          equ	4090	;# 
   445   000FFB                     PCLATU          equ	4091	;# 
   446   000FFC                     STKPTR          equ	4092	;# 
   447   000FFD                     TOS             equ	4093	;# 
   448   000FFD                     TOSL            equ	4093	;# 
   449   000FFE                     TOSH            equ	4094	;# 
   450   000FFF                     TOSU            equ	4095	;# 
   451   000F62                     SPPDATA         equ	3938	;# 
   452   000F63                     SPPCFG          equ	3939	;# 
   453   000F64                     SPPEPS          equ	3940	;# 
   454   000F65                     SPPCON          equ	3941	;# 
   455   000F66                     UFRM            equ	3942	;# 
   456   000F66                     UFRML           equ	3942	;# 
   457   000F67                     UFRMH           equ	3943	;# 
   458   000F68                     UIR             equ	3944	;# 
   459   000F69                     UIE             equ	3945	;# 
   460   000F6A                     UEIR            equ	3946	;# 
   461   000F6B                     UEIE            equ	3947	;# 
   462   000F6C                     USTAT           equ	3948	;# 
   463   000F6D                     UCON            equ	3949	;# 
   464   000F6E                     UADDR           equ	3950	;# 
   465   000F6F                     UCFG            equ	3951	;# 
   466   000F70                     UEP0            equ	3952	;# 
   467   000F71                     UEP1            equ	3953	;# 
   468   000F72                     UEP2            equ	3954	;# 
   469   000F73                     UEP3            equ	3955	;# 
   470   000F74                     UEP4            equ	3956	;# 
   471   000F75                     UEP5            equ	3957	;# 
   472   000F76                     UEP6            equ	3958	;# 
   473   000F77                     UEP7            equ	3959	;# 
   474   000F78                     UEP8            equ	3960	;# 
   475   000F79                     UEP9            equ	3961	;# 
   476   000F7A                     UEP10           equ	3962	;# 
   477   000F7B                     UEP11           equ	3963	;# 
   478   000F7C                     UEP12           equ	3964	;# 
   479   000F7D                     UEP13           equ	3965	;# 
   480   000F7E                     UEP14           equ	3966	;# 
   481   000F7F                     UEP15           equ	3967	;# 
   482   000F80                     PORTA           equ	3968	;# 
   483   000F81                     PORTB           equ	3969	;# 
   484   000F82                     PORTC           equ	3970	;# 
   485   000F83                     PORTD           equ	3971	;# 
   486   000F84                     PORTE           equ	3972	;# 
   487   000F89                     LATA            equ	3977	;# 
   488   000F8A                     LATB            equ	3978	;# 
   489   000F8B                     LATC            equ	3979	;# 
   490   000F8C                     LATD            equ	3980	;# 
   491   000F8D                     LATE            equ	3981	;# 
   492   000F92                     TRISA           equ	3986	;# 
   493   000F92                     DDRA            equ	3986	;# 
   494   000F93                     TRISB           equ	3987	;# 
   495   000F93                     DDRB            equ	3987	;# 
   496   000F94                     TRISC           equ	3988	;# 
   497   000F94                     DDRC            equ	3988	;# 
   498   000F95                     TRISD           equ	3989	;# 
   499   000F95                     DDRD            equ	3989	;# 
   500   000F96                     TRISE           equ	3990	;# 
   501   000F96                     DDRE            equ	3990	;# 
   502   000F9B                     OSCTUNE         equ	3995	;# 
   503   000F9D                     PIE1            equ	3997	;# 
   504   000F9E                     PIR1            equ	3998	;# 
   505   000F9F                     IPR1            equ	3999	;# 
   506   000FA0                     PIE2            equ	4000	;# 
   507   000FA1                     PIR2            equ	4001	;# 
   508   000FA2                     IPR2            equ	4002	;# 
   509   000FA6                     EECON1          equ	4006	;# 
   510   000FA7                     EECON2          equ	4007	;# 
   511   000FA8                     EEDATA          equ	4008	;# 
   512   000FA9                     EEADR           equ	4009	;# 
   513   000FAB                     RCSTA           equ	4011	;# 
   514   000FAB                     RCSTA1          equ	4011	;# 
   515   000FAC                     TXSTA           equ	4012	;# 
   516   000FAC                     TXSTA1          equ	4012	;# 
   517   000FAD                     TXREG           equ	4013	;# 
   518   000FAD                     TXREG1          equ	4013	;# 
   519   000FAE                     RCREG           equ	4014	;# 
   520   000FAE                     RCREG1          equ	4014	;# 
   521   000FAF                     SPBRG           equ	4015	;# 
   522   000FAF                     SPBRG1          equ	4015	;# 
   523   000FB0                     SPBRGH          equ	4016	;# 
   524   000FB1                     T3CON           equ	4017	;# 
   525   000FB2                     TMR3            equ	4018	;# 
   526   000FB2                     TMR3L           equ	4018	;# 
   527   000FB3                     TMR3H           equ	4019	;# 
   528   000FB4                     CMCON           equ	4020	;# 
   529   000FB5                     CVRCON          equ	4021	;# 
   530   000FB6                     ECCP1AS         equ	4022	;# 
   531   000FB6                     CCP1AS          equ	4022	;# 
   532   000FB7                     ECCP1DEL        equ	4023	;# 
   533   000FB7                     CCP1DEL         equ	4023	;# 
   534   000FB8                     BAUDCON         equ	4024	;# 
   535   000FB8                     BAUDCTL         equ	4024	;# 
   536   000FBA                     CCP2CON         equ	4026	;# 
   537   000FBB                     CCPR2           equ	4027	;# 
   538   000FBB                     CCPR2L          equ	4027	;# 
   539   000FBC                     CCPR2H          equ	4028	;# 
   540   000FBD                     CCP1CON         equ	4029	;# 
   541   000FBD                     ECCP1CON        equ	4029	;# 
   542   000FBE                     CCPR1           equ	4030	;# 
   543   000FBE                     CCPR1L          equ	4030	;# 
   544   000FBF                     CCPR1H          equ	4031	;# 
   545   000FC0                     ADCON2          equ	4032	;# 
   546   000FC1                     ADCON1          equ	4033	;# 
   547   000FC2                     ADCON0          equ	4034	;# 
   548   000FC3                     ADRES           equ	4035	;# 
   549   000FC3                     ADRESL          equ	4035	;# 
   550   000FC4                     ADRESH          equ	4036	;# 
   551   000FC5                     SSPCON2         equ	4037	;# 
   552   000FC6                     SSPCON1         equ	4038	;# 
   553   000FC7                     SSPSTAT         equ	4039	;# 
   554   000FC8                     SSPADD          equ	4040	;# 
   555   000FC9                     SSPBUF          equ	4041	;# 
   556   000FCA                     T2CON           equ	4042	;# 
   557   000FCB                     PR2             equ	4043	;# 
   558   000FCB                     MEMCON          equ	4043	;# 
   559   000FCC                     TMR2            equ	4044	;# 
   560   000FCD                     T1CON           equ	4045	;# 
   561   000FCE                     TMR1            equ	4046	;# 
   562   000FCE                     TMR1L           equ	4046	;# 
   563   000FCF                     TMR1H           equ	4047	;# 
   564   000FD0                     RCON            equ	4048	;# 
   565   000FD1                     WDTCON          equ	4049	;# 
   566   000FD2                     HLVDCON         equ	4050	;# 
   567   000FD2                     LVDCON          equ	4050	;# 
   568   000FD3                     OSCCON          equ	4051	;# 
   569   000FD5                     T0CON           equ	4053	;# 
   570   000FD6                     TMR0            equ	4054	;# 
   571   000FD6                     TMR0L           equ	4054	;# 
   572   000FD7                     TMR0H           equ	4055	;# 
   573   000FD8                     STATUS          equ	4056	;# 
   574   000FD9                     FSR2            equ	4057	;# 
   575   000FD9                     FSR2L           equ	4057	;# 
   576   000FDA                     FSR2H           equ	4058	;# 
   577   000FDB                     PLUSW2          equ	4059	;# 
   578   000FDC                     PREINC2         equ	4060	;# 
   579   000FDD                     POSTDEC2        equ	4061	;# 
   580   000FDE                     POSTINC2        equ	4062	;# 
   581   000FDF                     INDF2           equ	4063	;# 
   582   000FE0                     BSR             equ	4064	;# 
   583   000FE1                     FSR1            equ	4065	;# 
   584   000FE1                     FSR1L           equ	4065	;# 
   585   000FE2                     FSR1H           equ	4066	;# 
   586   000FE3                     PLUSW1          equ	4067	;# 
   587   000FE4                     PREINC1         equ	4068	;# 
   588   000FE5                     POSTDEC1        equ	4069	;# 
   589   000FE6                     POSTINC1        equ	4070	;# 
   590   000FE7                     INDF1           equ	4071	;# 
   591   000FE8                     WREG            equ	4072	;# 
   592   000FE9                     FSR0            equ	4073	;# 
   593   000FE9                     FSR0L           equ	4073	;# 
   594   000FEA                     FSR0H           equ	4074	;# 
   595   000FEB                     PLUSW0          equ	4075	;# 
   596   000FEC                     PREINC0         equ	4076	;# 
   597   000FED                     POSTDEC0        equ	4077	;# 
   598   000FEE                     POSTINC0        equ	4078	;# 
   599   000FEF                     INDF0           equ	4079	;# 
   600   000FF0                     INTCON3         equ	4080	;# 
   601   000FF1                     INTCON2         equ	4081	;# 
   602   000FF2                     INTCON          equ	4082	;# 
   603   000FF3                     PROD            equ	4083	;# 
   604   000FF3                     PRODL           equ	4083	;# 
   605   000FF4                     PRODH           equ	4084	;# 
   606   000FF5                     TABLAT          equ	4085	;# 
   607   000FF6                     TBLPTR          equ	4086	;# 
   608   000FF6                     TBLPTRL         equ	4086	;# 
   609   000FF7                     TBLPTRH         equ	4087	;# 
   610   000FF8                     TBLPTRU         equ	4088	;# 
   611   000FF9                     PCLAT           equ	4089	;# 
   612   000FF9                     PC              equ	4089	;# 
   613   000FF9                     PCL             equ	4089	;# 
   614   000FFA                     PCLATH          equ	4090	;# 
   615   000FFB                     PCLATU          equ	4091	;# 
   616   000FFC                     STKPTR          equ	4092	;# 
   617   000FFD                     TOS             equ	4093	;# 
   618   000FFD                     TOSL            equ	4093	;# 
   619   000FFE                     TOSH            equ	4094	;# 
   620   000FFF                     TOSU            equ	4095	;# 
   621   000F62                     SPPDATA         equ	3938	;# 
   622   000F63                     SPPCFG          equ	3939	;# 
   623   000F64                     SPPEPS          equ	3940	;# 
   624   000F65                     SPPCON          equ	3941	;# 
   625   000F66                     UFRM            equ	3942	;# 
   626   000F66                     UFRML           equ	3942	;# 
   627   000F67                     UFRMH           equ	3943	;# 
   628   000F68                     UIR             equ	3944	;# 
   629   000F69                     UIE             equ	3945	;# 
   630   000F6A                     UEIR            equ	3946	;# 
   631   000F6B                     UEIE            equ	3947	;# 
   632   000F6C                     USTAT           equ	3948	;# 
   633   000F6D                     UCON            equ	3949	;# 
   634   000F6E                     UADDR           equ	3950	;# 
   635   000F6F                     UCFG            equ	3951	;# 
   636   000F70                     UEP0            equ	3952	;# 
   637   000F71                     UEP1            equ	3953	;# 
   638   000F72                     UEP2            equ	3954	;# 
   639   000F73                     UEP3            equ	3955	;# 
   640   000F74                     UEP4            equ	3956	;# 
   641   000F75                     UEP5            equ	3957	;# 
   642   000F76                     UEP6            equ	3958	;# 
   643   000F77                     UEP7            equ	3959	;# 
   644   000F78                     UEP8            equ	3960	;# 
   645   000F79                     UEP9            equ	3961	;# 
   646   000F7A                     UEP10           equ	3962	;# 
   647   000F7B                     UEP11           equ	3963	;# 
   648   000F7C                     UEP12           equ	3964	;# 
   649   000F7D                     UEP13           equ	3965	;# 
   650   000F7E                     UEP14           equ	3966	;# 
   651   000F7F                     UEP15           equ	3967	;# 
   652   000F80                     PORTA           equ	3968	;# 
   653   000F81                     PORTB           equ	3969	;# 
   654   000F82                     PORTC           equ	3970	;# 
   655   000F83                     PORTD           equ	3971	;# 
   656   000F84                     PORTE           equ	3972	;# 
   657   000F89                     LATA            equ	3977	;# 
   658   000F8A                     LATB            equ	3978	;# 
   659   000F8B                     LATC            equ	3979	;# 
   660   000F8C                     LATD            equ	3980	;# 
   661   000F8D                     LATE            equ	3981	;# 
   662   000F92                     TRISA           equ	3986	;# 
   663   000F92                     DDRA            equ	3986	;# 
   664   000F93                     TRISB           equ	3987	;# 
   665   000F93                     DDRB            equ	3987	;# 
   666   000F94                     TRISC           equ	3988	;# 
   667   000F94                     DDRC            equ	3988	;# 
   668   000F95                     TRISD           equ	3989	;# 
   669   000F95                     DDRD            equ	3989	;# 
   670   000F96                     TRISE           equ	3990	;# 
   671   000F96                     DDRE            equ	3990	;# 
   672   000F9B                     OSCTUNE         equ	3995	;# 
   673   000F9D                     PIE1            equ	3997	;# 
   674   000F9E                     PIR1            equ	3998	;# 
   675   000F9F                     IPR1            equ	3999	;# 
   676   000FA0                     PIE2            equ	4000	;# 
   677   000FA1                     PIR2            equ	4001	;# 
   678   000FA2                     IPR2            equ	4002	;# 
   679   000FA6                     EECON1          equ	4006	;# 
   680   000FA7                     EECON2          equ	4007	;# 
   681   000FA8                     EEDATA          equ	4008	;# 
   682   000FA9                     EEADR           equ	4009	;# 
   683   000FAB                     RCSTA           equ	4011	;# 
   684   000FAB                     RCSTA1          equ	4011	;# 
   685   000FAC                     TXSTA           equ	4012	;# 
   686   000FAC                     TXSTA1          equ	4012	;# 
   687   000FAD                     TXREG           equ	4013	;# 
   688   000FAD                     TXREG1          equ	4013	;# 
   689   000FAE                     RCREG           equ	4014	;# 
   690   000FAE                     RCREG1          equ	4014	;# 
   691   000FAF                     SPBRG           equ	4015	;# 
   692   000FAF                     SPBRG1          equ	4015	;# 
   693   000FB0                     SPBRGH          equ	4016	;# 
   694   000FB1                     T3CON           equ	4017	;# 
   695   000FB2                     TMR3            equ	4018	;# 
   696   000FB2                     TMR3L           equ	4018	;# 
   697   000FB3                     TMR3H           equ	4019	;# 
   698   000FB4                     CMCON           equ	4020	;# 
   699   000FB5                     CVRCON          equ	4021	;# 
   700   000FB6                     ECCP1AS         equ	4022	;# 
   701   000FB6                     CCP1AS          equ	4022	;# 
   702   000FB7                     ECCP1DEL        equ	4023	;# 
   703   000FB7                     CCP1DEL         equ	4023	;# 
   704   000FB8                     BAUDCON         equ	4024	;# 
   705   000FB8                     BAUDCTL         equ	4024	;# 
   706   000FBA                     CCP2CON         equ	4026	;# 
   707   000FBB                     CCPR2           equ	4027	;# 
   708   000FBB                     CCPR2L          equ	4027	;# 
   709   000FBC                     CCPR2H          equ	4028	;# 
   710   000FBD                     CCP1CON         equ	4029	;# 
   711   000FBD                     ECCP1CON        equ	4029	;# 
   712   000FBE                     CCPR1           equ	4030	;# 
   713   000FBE                     CCPR1L          equ	4030	;# 
   714   000FBF                     CCPR1H          equ	4031	;# 
   715   000FC0                     ADCON2          equ	4032	;# 
   716   000FC1                     ADCON1          equ	4033	;# 
   717   000FC2                     ADCON0          equ	4034	;# 
   718   000FC3                     ADRES           equ	4035	;# 
   719   000FC3                     ADRESL          equ	4035	;# 
   720   000FC4                     ADRESH          equ	4036	;# 
   721   000FC5                     SSPCON2         equ	4037	;# 
   722   000FC6                     SSPCON1         equ	4038	;# 
   723   000FC7                     SSPSTAT         equ	4039	;# 
   724   000FC8                     SSPADD          equ	4040	;# 
   725   000FC9                     SSPBUF          equ	4041	;# 
   726   000FCA                     T2CON           equ	4042	;# 
   727   000FCB                     PR2             equ	4043	;# 
   728   000FCB                     MEMCON          equ	4043	;# 
   729   000FCC                     TMR2            equ	4044	;# 
   730   000FCD                     T1CON           equ	4045	;# 
   731   000FCE                     TMR1            equ	4046	;# 
   732   000FCE                     TMR1L           equ	4046	;# 
   733   000FCF                     TMR1H           equ	4047	;# 
   734   000FD0                     RCON            equ	4048	;# 
   735   000FD1                     WDTCON          equ	4049	;# 
   736   000FD2                     HLVDCON         equ	4050	;# 
   737   000FD2                     LVDCON          equ	4050	;# 
   738   000FD3                     OSCCON          equ	4051	;# 
   739   000FD5                     T0CON           equ	4053	;# 
   740   000FD6                     TMR0            equ	4054	;# 
   741   000FD6                     TMR0L           equ	4054	;# 
   742   000FD7                     TMR0H           equ	4055	;# 
   743   000FD8                     STATUS          equ	4056	;# 
   744   000FD9                     FSR2            equ	4057	;# 
   745   000FD9                     FSR2L           equ	4057	;# 
   746   000FDA                     FSR2H           equ	4058	;# 
   747   000FDB                     PLUSW2          equ	4059	;# 
   748   000FDC                     PREINC2         equ	4060	;# 
   749   000FDD                     POSTDEC2        equ	4061	;# 
   750   000FDE                     POSTINC2        equ	4062	;# 
   751   000FDF                     INDF2           equ	4063	;# 
   752   000FE0                     BSR             equ	4064	;# 
   753   000FE1                     FSR1            equ	4065	;# 
   754   000FE1                     FSR1L           equ	4065	;# 
   755   000FE2                     FSR1H           equ	4066	;# 
   756   000FE3                     PLUSW1          equ	4067	;# 
   757   000FE4                     PREINC1         equ	4068	;# 
   758   000FE5                     POSTDEC1        equ	4069	;# 
   759   000FE6                     POSTINC1        equ	4070	;# 
   760   000FE7                     INDF1           equ	4071	;# 
   761   000FE8                     WREG            equ	4072	;# 
   762   000FE9                     FSR0            equ	4073	;# 
   763   000FE9                     FSR0L           equ	4073	;# 
   764   000FEA                     FSR0H           equ	4074	;# 
   765   000FEB                     PLUSW0          equ	4075	;# 
   766   000FEC                     PREINC0         equ	4076	;# 
   767   000FED                     POSTDEC0        equ	4077	;# 
   768   000FEE                     POSTINC0        equ	4078	;# 
   769   000FEF                     INDF0           equ	4079	;# 
   770   000FF0                     INTCON3         equ	4080	;# 
   771   000FF1                     INTCON2         equ	4081	;# 
   772   000FF2                     INTCON          equ	4082	;# 
   773   000FF3                     PROD            equ	4083	;# 
   774   000FF3                     PRODL           equ	4083	;# 
   775   000FF4                     PRODH           equ	4084	;# 
   776   000FF5                     TABLAT          equ	4085	;# 
   777   000FF6                     TBLPTR          equ	4086	;# 
   778   000FF6                     TBLPTRL         equ	4086	;# 
   779   000FF7                     TBLPTRH         equ	4087	;# 
   780   000FF8                     TBLPTRU         equ	4088	;# 
   781   000FF9                     PCLAT           equ	4089	;# 
   782   000FF9                     PC              equ	4089	;# 
   783   000FF9                     PCL             equ	4089	;# 
   784   000FFA                     PCLATH          equ	4090	;# 
   785   000FFB                     PCLATU          equ	4091	;# 
   786   000FFC                     STKPTR          equ	4092	;# 
   787   000FFD                     TOS             equ	4093	;# 
   788   000FFD                     TOSL            equ	4093	;# 
   789   000FFE                     TOSH            equ	4094	;# 
   790   000FFF                     TOSU            equ	4095	;# 
   791   000F62                     SPPDATA         equ	3938	;# 
   792   000F63                     SPPCFG          equ	3939	;# 
   793   000F64                     SPPEPS          equ	3940	;# 
   794   000F65                     SPPCON          equ	3941	;# 
   795   000F66                     UFRM            equ	3942	;# 
   796   000F66                     UFRML           equ	3942	;# 
   797   000F67                     UFRMH           equ	3943	;# 
   798   000F68                     UIR             equ	3944	;# 
   799   000F69                     UIE             equ	3945	;# 
   800   000F6A                     UEIR            equ	3946	;# 
   801   000F6B                     UEIE            equ	3947	;# 
   802   000F6C                     USTAT           equ	3948	;# 
   803   000F6D                     UCON            equ	3949	;# 
   804   000F6E                     UADDR           equ	3950	;# 
   805   000F6F                     UCFG            equ	3951	;# 
   806   000F70                     UEP0            equ	3952	;# 
   807   000F71                     UEP1            equ	3953	;# 
   808   000F72                     UEP2            equ	3954	;# 
   809   000F73                     UEP3            equ	3955	;# 
   810   000F74                     UEP4            equ	3956	;# 
   811   000F75                     UEP5            equ	3957	;# 
   812   000F76                     UEP6            equ	3958	;# 
   813   000F77                     UEP7            equ	3959	;# 
   814   000F78                     UEP8            equ	3960	;# 
   815   000F79                     UEP9            equ	3961	;# 
   816   000F7A                     UEP10           equ	3962	;# 
   817   000F7B                     UEP11           equ	3963	;# 
   818   000F7C                     UEP12           equ	3964	;# 
   819   000F7D                     UEP13           equ	3965	;# 
   820   000F7E                     UEP14           equ	3966	;# 
   821   000F7F                     UEP15           equ	3967	;# 
   822   000F80                     PORTA           equ	3968	;# 
   823   000F81                     PORTB           equ	3969	;# 
   824   000F82                     PORTC           equ	3970	;# 
   825   000F83                     PORTD           equ	3971	;# 
   826   000F84                     PORTE           equ	3972	;# 
   827   000F89                     LATA            equ	3977	;# 
   828   000F8A                     LATB            equ	3978	;# 
   829   000F8B                     LATC            equ	3979	;# 
   830   000F8C                     LATD            equ	3980	;# 
   831   000F8D                     LATE            equ	3981	;# 
   832   000F92                     TRISA           equ	3986	;# 
   833   000F92                     DDRA            equ	3986	;# 
   834   000F93                     TRISB           equ	3987	;# 
   835   000F93                     DDRB            equ	3987	;# 
   836   000F94                     TRISC           equ	3988	;# 
   837   000F94                     DDRC            equ	3988	;# 
   838   000F95                     TRISD           equ	3989	;# 
   839   000F95                     DDRD            equ	3989	;# 
   840   000F96                     TRISE           equ	3990	;# 
   841   000F96                     DDRE            equ	3990	;# 
   842   000F9B                     OSCTUNE         equ	3995	;# 
   843   000F9D                     PIE1            equ	3997	;# 
   844   000F9E                     PIR1            equ	3998	;# 
   845   000F9F                     IPR1            equ	3999	;# 
   846   000FA0                     PIE2            equ	4000	;# 
   847   000FA1                     PIR2            equ	4001	;# 
   848   000FA2                     IPR2            equ	4002	;# 
   849   000FA6                     EECON1          equ	4006	;# 
   850   000FA7                     EECON2          equ	4007	;# 
   851   000FA8                     EEDATA          equ	4008	;# 
   852   000FA9                     EEADR           equ	4009	;# 
   853   000FAB                     RCSTA           equ	4011	;# 
   854   000FAB                     RCSTA1          equ	4011	;# 
   855   000FAC                     TXSTA           equ	4012	;# 
   856   000FAC                     TXSTA1          equ	4012	;# 
   857   000FAD                     TXREG           equ	4013	;# 
   858   000FAD                     TXREG1          equ	4013	;# 
   859   000FAE                     RCREG           equ	4014	;# 
   860   000FAE                     RCREG1          equ	4014	;# 
   861   000FAF                     SPBRG           equ	4015	;# 
   862   000FAF                     SPBRG1          equ	4015	;# 
   863   000FB0                     SPBRGH          equ	4016	;# 
   864   000FB1                     T3CON           equ	4017	;# 
   865   000FB2                     TMR3            equ	4018	;# 
   866   000FB2                     TMR3L           equ	4018	;# 
   867   000FB3                     TMR3H           equ	4019	;# 
   868   000FB4                     CMCON           equ	4020	;# 
   869   000FB5                     CVRCON          equ	4021	;# 
   870   000FB6                     ECCP1AS         equ	4022	;# 
   871   000FB6                     CCP1AS          equ	4022	;# 
   872   000FB7                     ECCP1DEL        equ	4023	;# 
   873   000FB7                     CCP1DEL         equ	4023	;# 
   874   000FB8                     BAUDCON         equ	4024	;# 
   875   000FB8                     BAUDCTL         equ	4024	;# 
   876   000FBA                     CCP2CON         equ	4026	;# 
   877   000FBB                     CCPR2           equ	4027	;# 
   878   000FBB                     CCPR2L          equ	4027	;# 
   879   000FBC                     CCPR2H          equ	4028	;# 
   880   000FBD                     CCP1CON         equ	4029	;# 
   881   000FBD                     ECCP1CON        equ	4029	;# 
   882   000FBE                     CCPR1           equ	4030	;# 
   883   000FBE                     CCPR1L          equ	4030	;# 
   884   000FBF                     CCPR1H          equ	4031	;# 
   885   000FC0                     ADCON2          equ	4032	;# 
   886   000FC1                     ADCON1          equ	4033	;# 
   887   000FC2                     ADCON0          equ	4034	;# 
   888   000FC3                     ADRES           equ	4035	;# 
   889   000FC3                     ADRESL          equ	4035	;# 
   890   000FC4                     ADRESH          equ	4036	;# 
   891   000FC5                     SSPCON2         equ	4037	;# 
   892   000FC6                     SSPCON1         equ	4038	;# 
   893   000FC7                     SSPSTAT         equ	4039	;# 
   894   000FC8                     SSPADD          equ	4040	;# 
   895   000FC9                     SSPBUF          equ	4041	;# 
   896   000FCA                     T2CON           equ	4042	;# 
   897   000FCB                     PR2             equ	4043	;# 
   898   000FCB                     MEMCON          equ	4043	;# 
   899   000FCC                     TMR2            equ	4044	;# 
   900   000FCD                     T1CON           equ	4045	;# 
   901   000FCE                     TMR1            equ	4046	;# 
   902   000FCE                     TMR1L           equ	4046	;# 
   903   000FCF                     TMR1H           equ	4047	;# 
   904   000FD0                     RCON            equ	4048	;# 
   905   000FD1                     WDTCON          equ	4049	;# 
   906   000FD2                     HLVDCON         equ	4050	;# 
   907   000FD2                     LVDCON          equ	4050	;# 
   908   000FD3                     OSCCON          equ	4051	;# 
   909   000FD5                     T0CON           equ	4053	;# 
   910   000FD6                     TMR0            equ	4054	;# 
   911   000FD6                     TMR0L           equ	4054	;# 
   912   000FD7                     TMR0H           equ	4055	;# 
   913   000FD8                     STATUS          equ	4056	;# 
   914   000FD9                     FSR2            equ	4057	;# 
   915   000FD9                     FSR2L           equ	4057	;# 
   916   000FDA                     FSR2H           equ	4058	;# 
   917   000FDB                     PLUSW2          equ	4059	;# 
   918   000FDC                     PREINC2         equ	4060	;# 
   919   000FDD                     POSTDEC2        equ	4061	;# 
   920   000FDE                     POSTINC2        equ	4062	;# 
   921   000FDF                     INDF2           equ	4063	;# 
   922   000FE0                     BSR             equ	4064	;# 
   923   000FE1                     FSR1            equ	4065	;# 
   924   000FE1                     FSR1L           equ	4065	;# 
   925   000FE2                     FSR1H           equ	4066	;# 
   926   000FE3                     PLUSW1          equ	4067	;# 
   927   000FE4                     PREINC1         equ	4068	;# 
   928   000FE5                     POSTDEC1        equ	4069	;# 
   929   000FE6                     POSTINC1        equ	4070	;# 
   930   000FE7                     INDF1           equ	4071	;# 
   931   000FE8                     WREG            equ	4072	;# 
   932   000FE9                     FSR0            equ	4073	;# 
   933   000FE9                     FSR0L           equ	4073	;# 
   934   000FEA                     FSR0H           equ	4074	;# 
   935   000FEB                     PLUSW0          equ	4075	;# 
   936   000FEC                     PREINC0         equ	4076	;# 
   937   000FED                     POSTDEC0        equ	4077	;# 
   938   000FEE                     POSTINC0        equ	4078	;# 
   939   000FEF                     INDF0           equ	4079	;# 
   940   000FF0                     INTCON3         equ	4080	;# 
   941   000FF1                     INTCON2         equ	4081	;# 
   942   000FF2                     INTCON          equ	4082	;# 
   943   000FF3                     PROD            equ	4083	;# 
   944   000FF3                     PRODL           equ	4083	;# 
   945   000FF4                     PRODH           equ	4084	;# 
   946   000FF5                     TABLAT          equ	4085	;# 
   947   000FF6                     TBLPTR          equ	4086	;# 
   948   000FF6                     TBLPTRL         equ	4086	;# 
   949   000FF7                     TBLPTRH         equ	4087	;# 
   950   000FF8                     TBLPTRU         equ	4088	;# 
   951   000FF9                     PCLAT           equ	4089	;# 
   952   000FF9                     PC              equ	4089	;# 
   953   000FF9                     PCL             equ	4089	;# 
   954   000FFA                     PCLATH          equ	4090	;# 
   955   000FFB                     PCLATU          equ	4091	;# 
   956   000FFC                     STKPTR          equ	4092	;# 
   957   000FFD                     TOS             equ	4093	;# 
   958   000FFD                     TOSL            equ	4093	;# 
   959   000FFE                     TOSH            equ	4094	;# 
   960   000FFF                     TOSU            equ	4095	;# 
   961   000F62                     SPPDATA         equ	3938	;# 
   962   000F63                     SPPCFG          equ	3939	;# 
   963   000F64                     SPPEPS          equ	3940	;# 
   964   000F65                     SPPCON          equ	3941	;# 
   965   000F66                     UFRM            equ	3942	;# 
   966   000F66                     UFRML           equ	3942	;# 
   967   000F67                     UFRMH           equ	3943	;# 
   968   000F68                     UIR             equ	3944	;# 
   969   000F69                     UIE             equ	3945	;# 
   970   000F6A                     UEIR            equ	3946	;# 
   971   000F6B                     UEIE            equ	3947	;# 
   972   000F6C                     USTAT           equ	3948	;# 
   973   000F6D                     UCON            equ	3949	;# 
   974   000F6E                     UADDR           equ	3950	;# 
   975   000F6F                     UCFG            equ	3951	;# 
   976   000F70                     UEP0            equ	3952	;# 
   977   000F71                     UEP1            equ	3953	;# 
   978   000F72                     UEP2            equ	3954	;# 
   979   000F73                     UEP3            equ	3955	;# 
   980   000F74                     UEP4            equ	3956	;# 
   981   000F75                     UEP5            equ	3957	;# 
   982   000F76                     UEP6            equ	3958	;# 
   983   000F77                     UEP7            equ	3959	;# 
   984   000F78                     UEP8            equ	3960	;# 
   985   000F79                     UEP9            equ	3961	;# 
   986   000F7A                     UEP10           equ	3962	;# 
   987   000F7B                     UEP11           equ	3963	;# 
   988   000F7C                     UEP12           equ	3964	;# 
   989   000F7D                     UEP13           equ	3965	;# 
   990   000F7E                     UEP14           equ	3966	;# 
   991   000F7F                     UEP15           equ	3967	;# 
   992   000F80                     PORTA           equ	3968	;# 
   993   000F81                     PORTB           equ	3969	;# 
   994   000F82                     PORTC           equ	3970	;# 
   995   000F83                     PORTD           equ	3971	;# 
   996   000F84                     PORTE           equ	3972	;# 
   997   000F89                     LATA            equ	3977	;# 
   998   000F8A                     LATB            equ	3978	;# 
   999   000F8B                     LATC            equ	3979	;# 
  1000   000F8C                     LATD            equ	3980	;# 
  1001   000F8D                     LATE            equ	3981	;# 
  1002   000F92                     TRISA           equ	3986	;# 
  1003   000F92                     DDRA            equ	3986	;# 
  1004   000F93                     TRISB           equ	3987	;# 
  1005   000F93                     DDRB            equ	3987	;# 
  1006   000F94                     TRISC           equ	3988	;# 
  1007   000F94                     DDRC            equ	3988	;# 
  1008   000F95                     TRISD           equ	3989	;# 
  1009   000F95                     DDRD            equ	3989	;# 
  1010   000F96                     TRISE           equ	3990	;# 
  1011   000F96                     DDRE            equ	3990	;# 
  1012   000F9B                     OSCTUNE         equ	3995	;# 
  1013   000F9D                     PIE1            equ	3997	;# 
  1014   000F9E                     PIR1            equ	3998	;# 
  1015   000F9F                     IPR1            equ	3999	;# 
  1016   000FA0                     PIE2            equ	4000	;# 
  1017   000FA1                     PIR2            equ	4001	;# 
  1018   000FA2                     IPR2            equ	4002	;# 
  1019   000FA6                     EECON1          equ	4006	;# 
  1020   000FA7                     EECON2          equ	4007	;# 
  1021   000FA8                     EEDATA          equ	4008	;# 
  1022   000FA9                     EEADR           equ	4009	;# 
  1023   000FAB                     RCSTA           equ	4011	;# 
  1024   000FAB                     RCSTA1          equ	4011	;# 
  1025   000FAC                     TXSTA           equ	4012	;# 
  1026   000FAC                     TXSTA1          equ	4012	;# 
  1027   000FAD                     TXREG           equ	4013	;# 
  1028   000FAD                     TXREG1          equ	4013	;# 
  1029   000FAE                     RCREG           equ	4014	;# 
  1030   000FAE                     RCREG1          equ	4014	;# 
  1031   000FAF                     SPBRG           equ	4015	;# 
  1032   000FAF                     SPBRG1          equ	4015	;# 
  1033   000FB0                     SPBRGH          equ	4016	;# 
  1034   000FB1                     T3CON           equ	4017	;# 
  1035   000FB2                     TMR3            equ	4018	;# 
  1036   000FB2                     TMR3L           equ	4018	;# 
  1037   000FB3                     TMR3H           equ	4019	;# 
  1038   000FB4                     CMCON           equ	4020	;# 
  1039   000FB5                     CVRCON          equ	4021	;# 
  1040   000FB6                     ECCP1AS         equ	4022	;# 
  1041   000FB6                     CCP1AS          equ	4022	;# 
  1042   000FB7                     ECCP1DEL        equ	4023	;# 
  1043   000FB7                     CCP1DEL         equ	4023	;# 
  1044   000FB8                     BAUDCON         equ	4024	;# 
  1045   000FB8                     BAUDCTL         equ	4024	;# 
  1046   000FBA                     CCP2CON         equ	4026	;# 
  1047   000FBB                     CCPR2           equ	4027	;# 
  1048   000FBB                     CCPR2L          equ	4027	;# 
  1049   000FBC                     CCPR2H          equ	4028	;# 
  1050   000FBD                     CCP1CON         equ	4029	;# 
  1051   000FBD                     ECCP1CON        equ	4029	;# 
  1052   000FBE                     CCPR1           equ	4030	;# 
  1053   000FBE                     CCPR1L          equ	4030	;# 
  1054   000FBF                     CCPR1H          equ	4031	;# 
  1055   000FC0                     ADCON2          equ	4032	;# 
  1056   000FC1                     ADCON1          equ	4033	;# 
  1057   000FC2                     ADCON0          equ	4034	;# 
  1058   000FC3                     ADRES           equ	4035	;# 
  1059   000FC3                     ADRESL          equ	4035	;# 
  1060   000FC4                     ADRESH          equ	4036	;# 
  1061   000FC5                     SSPCON2         equ	4037	;# 
  1062   000FC6                     SSPCON1         equ	4038	;# 
  1063   000FC7                     SSPSTAT         equ	4039	;# 
  1064   000FC8                     SSPADD          equ	4040	;# 
  1065   000FC9                     SSPBUF          equ	4041	;# 
  1066   000FCA                     T2CON           equ	4042	;# 
  1067   000FCB                     PR2             equ	4043	;# 
  1068   000FCB                     MEMCON          equ	4043	;# 
  1069   000FCC                     TMR2            equ	4044	;# 
  1070   000FCD                     T1CON           equ	4045	;# 
  1071   000FCE                     TMR1            equ	4046	;# 
  1072   000FCE                     TMR1L           equ	4046	;# 
  1073   000FCF                     TMR1H           equ	4047	;# 
  1074   000FD0                     RCON            equ	4048	;# 
  1075   000FD1                     WDTCON          equ	4049	;# 
  1076   000FD2                     HLVDCON         equ	4050	;# 
  1077   000FD2                     LVDCON          equ	4050	;# 
  1078   000FD3                     OSCCON          equ	4051	;# 
  1079   000FD5                     T0CON           equ	4053	;# 
  1080   000FD6                     TMR0            equ	4054	;# 
  1081   000FD6                     TMR0L           equ	4054	;# 
  1082   000FD7                     TMR0H           equ	4055	;# 
  1083   000FD8                     STATUS          equ	4056	;# 
  1084   000FD9                     FSR2            equ	4057	;# 
  1085   000FD9                     FSR2L           equ	4057	;# 
  1086   000FDA                     FSR2H           equ	4058	;# 
  1087   000FDB                     PLUSW2          equ	4059	;# 
  1088   000FDC                     PREINC2         equ	4060	;# 
  1089   000FDD                     POSTDEC2        equ	4061	;# 
  1090   000FDE                     POSTINC2        equ	4062	;# 
  1091   000FDF                     INDF2           equ	4063	;# 
  1092   000FE0                     BSR             equ	4064	;# 
  1093   000FE1                     FSR1            equ	4065	;# 
  1094   000FE1                     FSR1L           equ	4065	;# 
  1095   000FE2                     FSR1H           equ	4066	;# 
  1096   000FE3                     PLUSW1          equ	4067	;# 
  1097   000FE4                     PREINC1         equ	4068	;# 
  1098   000FE5                     POSTDEC1        equ	4069	;# 
  1099   000FE6                     POSTINC1        equ	4070	;# 
  1100   000FE7                     INDF1           equ	4071	;# 
  1101   000FE8                     WREG            equ	4072	;# 
  1102   000FE9                     FSR0            equ	4073	;# 
  1103   000FE9                     FSR0L           equ	4073	;# 
  1104   000FEA                     FSR0H           equ	4074	;# 
  1105   000FEB                     PLUSW0          equ	4075	;# 
  1106   000FEC                     PREINC0         equ	4076	;# 
  1107   000FED                     POSTDEC0        equ	4077	;# 
  1108   000FEE                     POSTINC0        equ	4078	;# 
  1109   000FEF                     INDF0           equ	4079	;# 
  1110   000FF0                     INTCON3         equ	4080	;# 
  1111   000FF1                     INTCON2         equ	4081	;# 
  1112   000FF2                     INTCON          equ	4082	;# 
  1113   000FF3                     PROD            equ	4083	;# 
  1114   000FF3                     PRODL           equ	4083	;# 
  1115   000FF4                     PRODH           equ	4084	;# 
  1116   000FF5                     TABLAT          equ	4085	;# 
  1117   000FF6                     TBLPTR          equ	4086	;# 
  1118   000FF6                     TBLPTRL         equ	4086	;# 
  1119   000FF7                     TBLPTRH         equ	4087	;# 
  1120   000FF8                     TBLPTRU         equ	4088	;# 
  1121   000FF9                     PCLAT           equ	4089	;# 
  1122   000FF9                     PC              equ	4089	;# 
  1123   000FF9                     PCL             equ	4089	;# 
  1124   000FFA                     PCLATH          equ	4090	;# 
  1125   000FFB                     PCLATU          equ	4091	;# 
  1126   000FFC                     STKPTR          equ	4092	;# 
  1127   000FFD                     TOS             equ	4093	;# 
  1128   000FFD                     TOSL            equ	4093	;# 
  1129   000FFE                     TOSH            equ	4094	;# 
  1130   000FFF                     TOSU            equ	4095	;# 
  1131   000F62                     SPPDATA         equ	3938	;# 
  1132   000F63                     SPPCFG          equ	3939	;# 
  1133   000F64                     SPPEPS          equ	3940	;# 
  1134   000F65                     SPPCON          equ	3941	;# 
  1135   000F66                     UFRM            equ	3942	;# 
  1136   000F66                     UFRML           equ	3942	;# 
  1137   000F67                     UFRMH           equ	3943	;# 
  1138   000F68                     UIR             equ	3944	;# 
  1139   000F69                     UIE             equ	3945	;# 
  1140   000F6A                     UEIR            equ	3946	;# 
  1141   000F6B                     UEIE            equ	3947	;# 
  1142   000F6C                     USTAT           equ	3948	;# 
  1143   000F6D                     UCON            equ	3949	;# 
  1144   000F6E                     UADDR           equ	3950	;# 
  1145   000F6F                     UCFG            equ	3951	;# 
  1146   000F70                     UEP0            equ	3952	;# 
  1147   000F71                     UEP1            equ	3953	;# 
  1148   000F72                     UEP2            equ	3954	;# 
  1149   000F73                     UEP3            equ	3955	;# 
  1150   000F74                     UEP4            equ	3956	;# 
  1151   000F75                     UEP5            equ	3957	;# 
  1152   000F76                     UEP6            equ	3958	;# 
  1153   000F77                     UEP7            equ	3959	;# 
  1154   000F78                     UEP8            equ	3960	;# 
  1155   000F79                     UEP9            equ	3961	;# 
  1156   000F7A                     UEP10           equ	3962	;# 
  1157   000F7B                     UEP11           equ	3963	;# 
  1158   000F7C                     UEP12           equ	3964	;# 
  1159   000F7D                     UEP13           equ	3965	;# 
  1160   000F7E                     UEP14           equ	3966	;# 
  1161   000F7F                     UEP15           equ	3967	;# 
  1162   000F80                     PORTA           equ	3968	;# 
  1163   000F81                     PORTB           equ	3969	;# 
  1164   000F82                     PORTC           equ	3970	;# 
  1165   000F83                     PORTD           equ	3971	;# 
  1166   000F84                     PORTE           equ	3972	;# 
  1167   000F89                     LATA            equ	3977	;# 
  1168   000F8A                     LATB            equ	3978	;# 
  1169   000F8B                     LATC            equ	3979	;# 
  1170   000F8C                     LATD            equ	3980	;# 
  1171   000F8D                     LATE            equ	3981	;# 
  1172   000F92                     TRISA           equ	3986	;# 
  1173   000F92                     DDRA            equ	3986	;# 
  1174   000F93                     TRISB           equ	3987	;# 
  1175   000F93                     DDRB            equ	3987	;# 
  1176   000F94                     TRISC           equ	3988	;# 
  1177   000F94                     DDRC            equ	3988	;# 
  1178   000F95                     TRISD           equ	3989	;# 
  1179   000F95                     DDRD            equ	3989	;# 
  1180   000F96                     TRISE           equ	3990	;# 
  1181   000F96                     DDRE            equ	3990	;# 
  1182   000F9B                     OSCTUNE         equ	3995	;# 
  1183   000F9D                     PIE1            equ	3997	;# 
  1184   000F9E                     PIR1            equ	3998	;# 
  1185   000F9F                     IPR1            equ	3999	;# 
  1186   000FA0                     PIE2            equ	4000	;# 
  1187   000FA1                     PIR2            equ	4001	;# 
  1188   000FA2                     IPR2            equ	4002	;# 
  1189   000FA6                     EECON1          equ	4006	;# 
  1190   000FA7                     EECON2          equ	4007	;# 
  1191   000FA8                     EEDATA          equ	4008	;# 
  1192   000FA9                     EEADR           equ	4009	;# 
  1193   000FAB                     RCSTA           equ	4011	;# 
  1194   000FAB                     RCSTA1          equ	4011	;# 
  1195   000FAC                     TXSTA           equ	4012	;# 
  1196   000FAC                     TXSTA1          equ	4012	;# 
  1197   000FAD                     TXREG           equ	4013	;# 
  1198   000FAD                     TXREG1          equ	4013	;# 
  1199   000FAE                     RCREG           equ	4014	;# 
  1200   000FAE                     RCREG1          equ	4014	;# 
  1201   000FAF                     SPBRG           equ	4015	;# 
  1202   000FAF                     SPBRG1          equ	4015	;# 
  1203   000FB0                     SPBRGH          equ	4016	;# 
  1204   000FB1                     T3CON           equ	4017	;# 
  1205   000FB2                     TMR3            equ	4018	;# 
  1206   000FB2                     TMR3L           equ	4018	;# 
  1207   000FB3                     TMR3H           equ	4019	;# 
  1208   000FB4                     CMCON           equ	4020	;# 
  1209   000FB5                     CVRCON          equ	4021	;# 
  1210   000FB6                     ECCP1AS         equ	4022	;# 
  1211   000FB6                     CCP1AS          equ	4022	;# 
  1212   000FB7                     ECCP1DEL        equ	4023	;# 
  1213   000FB7                     CCP1DEL         equ	4023	;# 
  1214   000FB8                     BAUDCON         equ	4024	;# 
  1215   000FB8                     BAUDCTL         equ	4024	;# 
  1216   000FBA                     CCP2CON         equ	4026	;# 
  1217   000FBB                     CCPR2           equ	4027	;# 
  1218   000FBB                     CCPR2L          equ	4027	;# 
  1219   000FBC                     CCPR2H          equ	4028	;# 
  1220   000FBD                     CCP1CON         equ	4029	;# 
  1221   000FBD                     ECCP1CON        equ	4029	;# 
  1222   000FBE                     CCPR1           equ	4030	;# 
  1223   000FBE                     CCPR1L          equ	4030	;# 
  1224   000FBF                     CCPR1H          equ	4031	;# 
  1225   000FC0                     ADCON2          equ	4032	;# 
  1226   000FC1                     ADCON1          equ	4033	;# 
  1227   000FC2                     ADCON0          equ	4034	;# 
  1228   000FC3                     ADRES           equ	4035	;# 
  1229   000FC3                     ADRESL          equ	4035	;# 
  1230   000FC4                     ADRESH          equ	4036	;# 
  1231   000FC5                     SSPCON2         equ	4037	;# 
  1232   000FC6                     SSPCON1         equ	4038	;# 
  1233   000FC7                     SSPSTAT         equ	4039	;# 
  1234   000FC8                     SSPADD          equ	4040	;# 
  1235   000FC9                     SSPBUF          equ	4041	;# 
  1236   000FCA                     T2CON           equ	4042	;# 
  1237   000FCB                     PR2             equ	4043	;# 
  1238   000FCB                     MEMCON          equ	4043	;# 
  1239   000FCC                     TMR2            equ	4044	;# 
  1240   000FCD                     T1CON           equ	4045	;# 
  1241   000FCE                     TMR1            equ	4046	;# 
  1242   000FCE                     TMR1L           equ	4046	;# 
  1243   000FCF                     TMR1H           equ	4047	;# 
  1244   000FD0                     RCON            equ	4048	;# 
  1245   000FD1                     WDTCON          equ	4049	;# 
  1246   000FD2                     HLVDCON         equ	4050	;# 
  1247   000FD2                     LVDCON          equ	4050	;# 
  1248   000FD3                     OSCCON          equ	4051	;# 
  1249   000FD5                     T0CON           equ	4053	;# 
  1250   000FD6                     TMR0            equ	4054	;# 
  1251   000FD6                     TMR0L           equ	4054	;# 
  1252   000FD7                     TMR0H           equ	4055	;# 
  1253   000FD8                     STATUS          equ	4056	;# 
  1254   000FD9                     FSR2            equ	4057	;# 
  1255   000FD9                     FSR2L           equ	4057	;# 
  1256   000FDA                     FSR2H           equ	4058	;# 
  1257   000FDB                     PLUSW2          equ	4059	;# 
  1258   000FDC                     PREINC2         equ	4060	;# 
  1259   000FDD                     POSTDEC2        equ	4061	;# 
  1260   000FDE                     POSTINC2        equ	4062	;# 
  1261   000FDF                     INDF2           equ	4063	;# 
  1262   000FE0                     BSR             equ	4064	;# 
  1263   000FE1                     FSR1            equ	4065	;# 
  1264   000FE1                     FSR1L           equ	4065	;# 
  1265   000FE2                     FSR1H           equ	4066	;# 
  1266   000FE3                     PLUSW1          equ	4067	;# 
  1267   000FE4                     PREINC1         equ	4068	;# 
  1268   000FE5                     POSTDEC1        equ	4069	;# 
  1269   000FE6                     POSTINC1        equ	4070	;# 
  1270   000FE7                     INDF1           equ	4071	;# 
  1271   000FE8                     WREG            equ	4072	;# 
  1272   000FE9                     FSR0            equ	4073	;# 
  1273   000FE9                     FSR0L           equ	4073	;# 
  1274   000FEA                     FSR0H           equ	4074	;# 
  1275   000FEB                     PLUSW0          equ	4075	;# 
  1276   000FEC                     PREINC0         equ	4076	;# 
  1277   000FED                     POSTDEC0        equ	4077	;# 
  1278   000FEE                     POSTINC0        equ	4078	;# 
  1279   000FEF                     INDF0           equ	4079	;# 
  1280   000FF0                     INTCON3         equ	4080	;# 
  1281   000FF1                     INTCON2         equ	4081	;# 
  1282   000FF2                     INTCON          equ	4082	;# 
  1283   000FF3                     PROD            equ	4083	;# 
  1284   000FF3                     PRODL           equ	4083	;# 
  1285   000FF4                     PRODH           equ	4084	;# 
  1286   000FF5                     TABLAT          equ	4085	;# 
  1287   000FF6                     TBLPTR          equ	4086	;# 
  1288   000FF6                     TBLPTRL         equ	4086	;# 
  1289   000FF7                     TBLPTRH         equ	4087	;# 
  1290   000FF8                     TBLPTRU         equ	4088	;# 
  1291   000FF9                     PCLAT           equ	4089	;# 
  1292   000FF9                     PC              equ	4089	;# 
  1293   000FF9                     PCL             equ	4089	;# 
  1294   000FFA                     PCLATH          equ	4090	;# 
  1295   000FFB                     PCLATU          equ	4091	;# 
  1296   000FFC                     STKPTR          equ	4092	;# 
  1297   000FFD                     TOS             equ	4093	;# 
  1298   000FFD                     TOSL            equ	4093	;# 
  1299   000FFE                     TOSH            equ	4094	;# 
  1300   000FFF                     TOSU            equ	4095	;# 
  1301   000F62                     SPPDATA         equ	3938	;# 
  1302   000F63                     SPPCFG          equ	3939	;# 
  1303   000F64                     SPPEPS          equ	3940	;# 
  1304   000F65                     SPPCON          equ	3941	;# 
  1305   000F66                     UFRM            equ	3942	;# 
  1306   000F66                     UFRML           equ	3942	;# 
  1307   000F67                     UFRMH           equ	3943	;# 
  1308   000F68                     UIR             equ	3944	;# 
  1309   000F69                     UIE             equ	3945	;# 
  1310   000F6A                     UEIR            equ	3946	;# 
  1311   000F6B                     UEIE            equ	3947	;# 
  1312   000F6C                     USTAT           equ	3948	;# 
  1313   000F6D                     UCON            equ	3949	;# 
  1314   000F6E                     UADDR           equ	3950	;# 
  1315   000F6F                     UCFG            equ	3951	;# 
  1316   000F70                     UEP0            equ	3952	;# 
  1317   000F71                     UEP1            equ	3953	;# 
  1318   000F72                     UEP2            equ	3954	;# 
  1319   000F73                     UEP3            equ	3955	;# 
  1320   000F74                     UEP4            equ	3956	;# 
  1321   000F75                     UEP5            equ	3957	;# 
  1322   000F76                     UEP6            equ	3958	;# 
  1323   000F77                     UEP7            equ	3959	;# 
  1324   000F78                     UEP8            equ	3960	;# 
  1325   000F79                     UEP9            equ	3961	;# 
  1326   000F7A                     UEP10           equ	3962	;# 
  1327   000F7B                     UEP11           equ	3963	;# 
  1328   000F7C                     UEP12           equ	3964	;# 
  1329   000F7D                     UEP13           equ	3965	;# 
  1330   000F7E                     UEP14           equ	3966	;# 
  1331   000F7F                     UEP15           equ	3967	;# 
  1332   000F80                     PORTA           equ	3968	;# 
  1333   000F81                     PORTB           equ	3969	;# 
  1334   000F82                     PORTC           equ	3970	;# 
  1335   000F83                     PORTD           equ	3971	;# 
  1336   000F84                     PORTE           equ	3972	;# 
  1337   000F89                     LATA            equ	3977	;# 
  1338   000F8A                     LATB            equ	3978	;# 
  1339   000F8B                     LATC            equ	3979	;# 
  1340   000F8C                     LATD            equ	3980	;# 
  1341   000F8D                     LATE            equ	3981	;# 
  1342   000F92                     TRISA           equ	3986	;# 
  1343   000F92                     DDRA            equ	3986	;# 
  1344   000F93                     TRISB           equ	3987	;# 
  1345   000F93                     DDRB            equ	3987	;# 
  1346   000F94                     TRISC           equ	3988	;# 
  1347   000F94                     DDRC            equ	3988	;# 
  1348   000F95                     TRISD           equ	3989	;# 
  1349   000F95                     DDRD            equ	3989	;# 
  1350   000F96                     TRISE           equ	3990	;# 
  1351   000F96                     DDRE            equ	3990	;# 
  1352   000F9B                     OSCTUNE         equ	3995	;# 
  1353   000F9D                     PIE1            equ	3997	;# 
  1354   000F9E                     PIR1            equ	3998	;# 
  1355   000F9F                     IPR1            equ	3999	;# 
  1356   000FA0                     PIE2            equ	4000	;# 
  1357   000FA1                     PIR2            equ	4001	;# 
  1358   000FA2                     IPR2            equ	4002	;# 
  1359   000FA6                     EECON1          equ	4006	;# 
  1360   000FA7                     EECON2          equ	4007	;# 
  1361   000FA8                     EEDATA          equ	4008	;# 
  1362   000FA9                     EEADR           equ	4009	;# 
  1363   000FAB                     RCSTA           equ	4011	;# 
  1364   000FAB                     RCSTA1          equ	4011	;# 
  1365   000FAC                     TXSTA           equ	4012	;# 
  1366   000FAC                     TXSTA1          equ	4012	;# 
  1367   000FAD                     TXREG           equ	4013	;# 
  1368   000FAD                     TXREG1          equ	4013	;# 
  1369   000FAE                     RCREG           equ	4014	;# 
  1370   000FAE                     RCREG1          equ	4014	;# 
  1371   000FAF                     SPBRG           equ	4015	;# 
  1372   000FAF                     SPBRG1          equ	4015	;# 
  1373   000FB0                     SPBRGH          equ	4016	;# 
  1374   000FB1                     T3CON           equ	4017	;# 
  1375   000FB2                     TMR3            equ	4018	;# 
  1376   000FB2                     TMR3L           equ	4018	;# 
  1377   000FB3                     TMR3H           equ	4019	;# 
  1378   000FB4                     CMCON           equ	4020	;# 
  1379   000FB5                     CVRCON          equ	4021	;# 
  1380   000FB6                     ECCP1AS         equ	4022	;# 
  1381   000FB6                     CCP1AS          equ	4022	;# 
  1382   000FB7                     ECCP1DEL        equ	4023	;# 
  1383   000FB7                     CCP1DEL         equ	4023	;# 
  1384   000FB8                     BAUDCON         equ	4024	;# 
  1385   000FB8                     BAUDCTL         equ	4024	;# 
  1386   000FBA                     CCP2CON         equ	4026	;# 
  1387   000FBB                     CCPR2           equ	4027	;# 
  1388   000FBB                     CCPR2L          equ	4027	;# 
  1389   000FBC                     CCPR2H          equ	4028	;# 
  1390   000FBD                     CCP1CON         equ	4029	;# 
  1391   000FBD                     ECCP1CON        equ	4029	;# 
  1392   000FBE                     CCPR1           equ	4030	;# 
  1393   000FBE                     CCPR1L          equ	4030	;# 
  1394   000FBF                     CCPR1H          equ	4031	;# 
  1395   000FC0                     ADCON2          equ	4032	;# 
  1396   000FC1                     ADCON1          equ	4033	;# 
  1397   000FC2                     ADCON0          equ	4034	;# 
  1398   000FC3                     ADRES           equ	4035	;# 
  1399   000FC3                     ADRESL          equ	4035	;# 
  1400   000FC4                     ADRESH          equ	4036	;# 
  1401   000FC5                     SSPCON2         equ	4037	;# 
  1402   000FC6                     SSPCON1         equ	4038	;# 
  1403   000FC7                     SSPSTAT         equ	4039	;# 
  1404   000FC8                     SSPADD          equ	4040	;# 
  1405   000FC9                     SSPBUF          equ	4041	;# 
  1406   000FCA                     T2CON           equ	4042	;# 
  1407   000FCB                     PR2             equ	4043	;# 
  1408   000FCB                     MEMCON          equ	4043	;# 
  1409   000FCC                     TMR2            equ	4044	;# 
  1410   000FCD                     T1CON           equ	4045	;# 
  1411   000FCE                     TMR1            equ	4046	;# 
  1412   000FCE                     TMR1L           equ	4046	;# 
  1413   000FCF                     TMR1H           equ	4047	;# 
  1414   000FD0                     RCON            equ	4048	;# 
  1415   000FD1                     WDTCON          equ	4049	;# 
  1416   000FD2                     HLVDCON         equ	4050	;# 
  1417   000FD2                     LVDCON          equ	4050	;# 
  1418   000FD3                     OSCCON          equ	4051	;# 
  1419   000FD5                     T0CON           equ	4053	;# 
  1420   000FD6                     TMR0            equ	4054	;# 
  1421   000FD6                     TMR0L           equ	4054	;# 
  1422   000FD7                     TMR0H           equ	4055	;# 
  1423   000FD8                     STATUS          equ	4056	;# 
  1424   000FD9                     FSR2            equ	4057	;# 
  1425   000FD9                     FSR2L           equ	4057	;# 
  1426   000FDA                     FSR2H           equ	4058	;# 
  1427   000FDB                     PLUSW2          equ	4059	;# 
  1428   000FDC                     PREINC2         equ	4060	;# 
  1429   000FDD                     POSTDEC2        equ	4061	;# 
  1430   000FDE                     POSTINC2        equ	4062	;# 
  1431   000FDF                     INDF2           equ	4063	;# 
  1432   000FE0                     BSR             equ	4064	;# 
  1433   000FE1                     FSR1            equ	4065	;# 
  1434   000FE1                     FSR1L           equ	4065	;# 
  1435   000FE2                     FSR1H           equ	4066	;# 
  1436   000FE3                     PLUSW1          equ	4067	;# 
  1437   000FE4                     PREINC1         equ	4068	;# 
  1438   000FE5                     POSTDEC1        equ	4069	;# 
  1439   000FE6                     POSTINC1        equ	4070	;# 
  1440   000FE7                     INDF1           equ	4071	;# 
  1441   000FE8                     WREG            equ	4072	;# 
  1442   000FE9                     FSR0            equ	4073	;# 
  1443   000FE9                     FSR0L           equ	4073	;# 
  1444   000FEA                     FSR0H           equ	4074	;# 
  1445   000FEB                     PLUSW0          equ	4075	;# 
  1446   000FEC                     PREINC0         equ	4076	;# 
  1447   000FED                     POSTDEC0        equ	4077	;# 
  1448   000FEE                     POSTINC0        equ	4078	;# 
  1449   000FEF                     INDF0           equ	4079	;# 
  1450   000FF0                     INTCON3         equ	4080	;# 
  1451   000FF1                     INTCON2         equ	4081	;# 
  1452   000FF2                     INTCON          equ	4082	;# 
  1453   000FF3                     PROD            equ	4083	;# 
  1454   000FF3                     PRODL           equ	4083	;# 
  1455   000FF4                     PRODH           equ	4084	;# 
  1456   000FF5                     TABLAT          equ	4085	;# 
  1457   000FF6                     TBLPTR          equ	4086	;# 
  1458   000FF6                     TBLPTRL         equ	4086	;# 
  1459   000FF7                     TBLPTRH         equ	4087	;# 
  1460   000FF8                     TBLPTRU         equ	4088	;# 
  1461   000FF9                     PCLAT           equ	4089	;# 
  1462   000FF9                     PC              equ	4089	;# 
  1463   000FF9                     PCL             equ	4089	;# 
  1464   000FFA                     PCLATH          equ	4090	;# 
  1465   000FFB                     PCLATU          equ	4091	;# 
  1466   000FFC                     STKPTR          equ	4092	;# 
  1467   000FFD                     TOS             equ	4093	;# 
  1468   000FFD                     TOSL            equ	4093	;# 
  1469   000FFE                     TOSH            equ	4094	;# 
  1470   000FFF                     TOSU            equ	4095	;# 
  1471   000F62                     SPPDATA         equ	3938	;# 
  1472   000F63                     SPPCFG          equ	3939	;# 
  1473   000F64                     SPPEPS          equ	3940	;# 
  1474   000F65                     SPPCON          equ	3941	;# 
  1475   000F66                     UFRM            equ	3942	;# 
  1476   000F66                     UFRML           equ	3942	;# 
  1477   000F67                     UFRMH           equ	3943	;# 
  1478   000F68                     UIR             equ	3944	;# 
  1479   000F69                     UIE             equ	3945	;# 
  1480   000F6A                     UEIR            equ	3946	;# 
  1481   000F6B                     UEIE            equ	3947	;# 
  1482   000F6C                     USTAT           equ	3948	;# 
  1483   000F6D                     UCON            equ	3949	;# 
  1484   000F6E                     UADDR           equ	3950	;# 
  1485   000F6F                     UCFG            equ	3951	;# 
  1486   000F70                     UEP0            equ	3952	;# 
  1487   000F71                     UEP1            equ	3953	;# 
  1488   000F72                     UEP2            equ	3954	;# 
  1489   000F73                     UEP3            equ	3955	;# 
  1490   000F74                     UEP4            equ	3956	;# 
  1491   000F75                     UEP5            equ	3957	;# 
  1492   000F76                     UEP6            equ	3958	;# 
  1493   000F77                     UEP7            equ	3959	;# 
  1494   000F78                     UEP8            equ	3960	;# 
  1495   000F79                     UEP9            equ	3961	;# 
  1496   000F7A                     UEP10           equ	3962	;# 
  1497   000F7B                     UEP11           equ	3963	;# 
  1498   000F7C                     UEP12           equ	3964	;# 
  1499   000F7D                     UEP13           equ	3965	;# 
  1500   000F7E                     UEP14           equ	3966	;# 
  1501   000F7F                     UEP15           equ	3967	;# 
  1502   000F80                     PORTA           equ	3968	;# 
  1503   000F81                     PORTB           equ	3969	;# 
  1504   000F82                     PORTC           equ	3970	;# 
  1505   000F83                     PORTD           equ	3971	;# 
  1506   000F84                     PORTE           equ	3972	;# 
  1507   000F89                     LATA            equ	3977	;# 
  1508   000F8A                     LATB            equ	3978	;# 
  1509   000F8B                     LATC            equ	3979	;# 
  1510   000F8C                     LATD            equ	3980	;# 
  1511   000F8D                     LATE            equ	3981	;# 
  1512   000F92                     TRISA           equ	3986	;# 
  1513   000F92                     DDRA            equ	3986	;# 
  1514   000F93                     TRISB           equ	3987	;# 
  1515   000F93                     DDRB            equ	3987	;# 
  1516   000F94                     TRISC           equ	3988	;# 
  1517   000F94                     DDRC            equ	3988	;# 
  1518   000F95                     TRISD           equ	3989	;# 
  1519   000F95                     DDRD            equ	3989	;# 
  1520   000F96                     TRISE           equ	3990	;# 
  1521   000F96                     DDRE            equ	3990	;# 
  1522   000F9B                     OSCTUNE         equ	3995	;# 
  1523   000F9D                     PIE1            equ	3997	;# 
  1524   000F9E                     PIR1            equ	3998	;# 
  1525   000F9F                     IPR1            equ	3999	;# 
  1526   000FA0                     PIE2            equ	4000	;# 
  1527   000FA1                     PIR2            equ	4001	;# 
  1528   000FA2                     IPR2            equ	4002	;# 
  1529   000FA6                     EECON1          equ	4006	;# 
  1530   000FA7                     EECON2          equ	4007	;# 
  1531   000FA8                     EEDATA          equ	4008	;# 
  1532   000FA9                     EEADR           equ	4009	;# 
  1533   000FAB                     RCSTA           equ	4011	;# 
  1534   000FAB                     RCSTA1          equ	4011	;# 
  1535   000FAC                     TXSTA           equ	4012	;# 
  1536   000FAC                     TXSTA1          equ	4012	;# 
  1537   000FAD                     TXREG           equ	4013	;# 
  1538   000FAD                     TXREG1          equ	4013	;# 
  1539   000FAE                     RCREG           equ	4014	;# 
  1540   000FAE                     RCREG1          equ	4014	;# 
  1541   000FAF                     SPBRG           equ	4015	;# 
  1542   000FAF                     SPBRG1          equ	4015	;# 
  1543   000FB0                     SPBRGH          equ	4016	;# 
  1544   000FB1                     T3CON           equ	4017	;# 
  1545   000FB2                     TMR3            equ	4018	;# 
  1546   000FB2                     TMR3L           equ	4018	;# 
  1547   000FB3                     TMR3H           equ	4019	;# 
  1548   000FB4                     CMCON           equ	4020	;# 
  1549   000FB5                     CVRCON          equ	4021	;# 
  1550   000FB6                     ECCP1AS         equ	4022	;# 
  1551   000FB6                     CCP1AS          equ	4022	;# 
  1552   000FB7                     ECCP1DEL        equ	4023	;# 
  1553   000FB7                     CCP1DEL         equ	4023	;# 
  1554   000FB8                     BAUDCON         equ	4024	;# 
  1555   000FB8                     BAUDCTL         equ	4024	;# 
  1556   000FBA                     CCP2CON         equ	4026	;# 
  1557   000FBB                     CCPR2           equ	4027	;# 
  1558   000FBB                     CCPR2L          equ	4027	;# 
  1559   000FBC                     CCPR2H          equ	4028	;# 
  1560   000FBD                     CCP1CON         equ	4029	;# 
  1561   000FBD                     ECCP1CON        equ	4029	;# 
  1562   000FBE                     CCPR1           equ	4030	;# 
  1563   000FBE                     CCPR1L          equ	4030	;# 
  1564   000FBF                     CCPR1H          equ	4031	;# 
  1565   000FC0                     ADCON2          equ	4032	;# 
  1566   000FC1                     ADCON1          equ	4033	;# 
  1567   000FC2                     ADCON0          equ	4034	;# 
  1568   000FC3                     ADRES           equ	4035	;# 
  1569   000FC3                     ADRESL          equ	4035	;# 
  1570   000FC4                     ADRESH          equ	4036	;# 
  1571   000FC5                     SSPCON2         equ	4037	;# 
  1572   000FC6                     SSPCON1         equ	4038	;# 
  1573   000FC7                     SSPSTAT         equ	4039	;# 
  1574   000FC8                     SSPADD          equ	4040	;# 
  1575   000FC9                     SSPBUF          equ	4041	;# 
  1576   000FCA                     T2CON           equ	4042	;# 
  1577   000FCB                     PR2             equ	4043	;# 
  1578   000FCB                     MEMCON          equ	4043	;# 
  1579   000FCC                     TMR2            equ	4044	;# 
  1580   000FCD                     T1CON           equ	4045	;# 
  1581   000FCE                     TMR1            equ	4046	;# 
  1582   000FCE                     TMR1L           equ	4046	;# 
  1583   000FCF                     TMR1H           equ	4047	;# 
  1584   000FD0                     RCON            equ	4048	;# 
  1585   000FD1                     WDTCON          equ	4049	;# 
  1586   000FD2                     HLVDCON         equ	4050	;# 
  1587   000FD2                     LVDCON          equ	4050	;# 
  1588   000FD3                     OSCCON          equ	4051	;# 
  1589   000FD5                     T0CON           equ	4053	;# 
  1590   000FD6                     TMR0            equ	4054	;# 
  1591   000FD6                     TMR0L           equ	4054	;# 
  1592   000FD7                     TMR0H           equ	4055	;# 
  1593   000FD8                     STATUS          equ	4056	;# 
  1594   000FD9                     FSR2            equ	4057	;# 
  1595   000FD9                     FSR2L           equ	4057	;# 
  1596   000FDA                     FSR2H           equ	4058	;# 
  1597   000FDB                     PLUSW2          equ	4059	;# 
  1598   000FDC                     PREINC2         equ	4060	;# 
  1599   000FDD                     POSTDEC2        equ	4061	;# 
  1600   000FDE                     POSTINC2        equ	4062	;# 
  1601   000FDF                     INDF2           equ	4063	;# 
  1602   000FE0                     BSR             equ	4064	;# 
  1603   000FE1                     FSR1            equ	4065	;# 
  1604   000FE1                     FSR1L           equ	4065	;# 
  1605   000FE2                     FSR1H           equ	4066	;# 
  1606   000FE3                     PLUSW1          equ	4067	;# 
  1607   000FE4                     PREINC1         equ	4068	;# 
  1608   000FE5                     POSTDEC1        equ	4069	;# 
  1609   000FE6                     POSTINC1        equ	4070	;# 
  1610   000FE7                     INDF1           equ	4071	;# 
  1611   000FE8                     WREG            equ	4072	;# 
  1612   000FE9                     FSR0            equ	4073	;# 
  1613   000FE9                     FSR0L           equ	4073	;# 
  1614   000FEA                     FSR0H           equ	4074	;# 
  1615   000FEB                     PLUSW0          equ	4075	;# 
  1616   000FEC                     PREINC0         equ	4076	;# 
  1617   000FED                     POSTDEC0        equ	4077	;# 
  1618   000FEE                     POSTINC0        equ	4078	;# 
  1619   000FEF                     INDF0           equ	4079	;# 
  1620   000FF0                     INTCON3         equ	4080	;# 
  1621   000FF1                     INTCON2         equ	4081	;# 
  1622   000FF2                     INTCON          equ	4082	;# 
  1623   000FF3                     PROD            equ	4083	;# 
  1624   000FF3                     PRODL           equ	4083	;# 
  1625   000FF4                     PRODH           equ	4084	;# 
  1626   000FF5                     TABLAT          equ	4085	;# 
  1627   000FF6                     TBLPTR          equ	4086	;# 
  1628   000FF6                     TBLPTRL         equ	4086	;# 
  1629   000FF7                     TBLPTRH         equ	4087	;# 
  1630   000FF8                     TBLPTRU         equ	4088	;# 
  1631   000FF9                     PCLAT           equ	4089	;# 
  1632   000FF9                     PC              equ	4089	;# 
  1633   000FF9                     PCL             equ	4089	;# 
  1634   000FFA                     PCLATH          equ	4090	;# 
  1635   000FFB                     PCLATU          equ	4091	;# 
  1636   000FFC                     STKPTR          equ	4092	;# 
  1637   000FFD                     TOS             equ	4093	;# 
  1638   000FFD                     TOSL            equ	4093	;# 
  1639   000FFE                     TOSH            equ	4094	;# 
  1640   000FFF                     TOSU            equ	4095	;# 
  1641   000FFD                     _TOS            set	4093
  1642   000FC3                     _ADRES          set	4035
  1643   000FD6                     _TMR0           set	4054
  1644   000FC0                     _ADCON2bits     set	4032
  1645   000FC1                     _ADCON1bits     set	4033
  1646   000FC2                     _ADCON0bits     set	4034
  1647   000FD5                     _T0CONbits      set	4053
  1648   000FFC                     _STKPTR         set	4092
  1649   000FE8                     _WREG           set	4072
  1650   000FD8                     _STATUS         set	4056
  1651   000FE0                     _BSR            set	4064
  1652   000F8B                     _LATCbits       set	3979
  1653   000F94                     _TRISCbits      set	3988
  1654   000F83                     _PORTDbits      set	3971
  1655   000F8C                     _LATDbits       set	3980
  1656   000F95                     _TRISDbits      set	3989
  1657   000FF2                     _INTCONbits     set	4082
  1658                           
  1659                           ; #config settings
  1660                           
  1661                           	psect	cinit
  1662   000EEE                     __pcinit:
  1663                           	callstack 0
  1664   000EEE                     start_initialization:
  1665                           	callstack 0
  1666   000EEE                     __initialization:
  1667                           	callstack 0
  1668                           
  1669                           ; Clear objects allocated to BIGRAM (1045 bytes)
  1670   000EEE  EE00  F0CB         	lfsr	0,__pbssBIGRAM
  1671   000EF2  EE14 F015          	lfsr	1,1045
  1672   000EF6                     clear_0:
  1673   000EF6  6AEE               	clrf	postinc0,c
  1674   000EF8  50E5               	movf	postdec1,w,c
  1675   000EFA  50E1               	movf	fsr1l,w,c
  1676   000EFC  E1FC               	bnz	clear_0
  1677   000EFE  50E2               	movf	fsr1h,w,c
  1678   000F00  E1FA               	bnz	clear_0
  1679   000F02                     end_of_initialization:
  1680                           	callstack 0
  1681   000F02                     __end_of__initialization:
  1682                           	callstack 0
  1683   000F02  901A               	bcf	int$flags,0,c	;clear compiler interrupt flag (level 1)
  1684   000F04  921A               	bcf	int$flags,1,c	;clear compiler interrupt flag (level 2)
  1685   000F06  0100               	movlb	0
  1686   000F08  EF55  F007         	goto	_main	;jump to C main() function
  1687                           
  1688                           	psect	bssBIGRAM
  1689   0000CB                     __pbssBIGRAM:
  1690                           	callstack 0
  1691   0000CB                     _readyQueue:
  1692                           	callstack 0
  1693   0000CB                     	ds	533
  1694   0002E0                     __uDynamicHeap:
  1695                           	callstack 0
  1696   0002E0                     	ds	512
  1697                           
  1698                           	psect	cstackBANK0
  1699   000060                     __pcstackBANK0:
  1700                           	callstack 0
  1701   000060                     os_create_task@id:
  1702                           	callstack 0
  1703                           
  1704                           ; 1 bytes @ 0x0
  1705   000060                     	ds	1
  1706   000061                     os_create_task@new_task:
  1707                           	callstack 0
  1708                           
  1709                           ; 106 bytes @ 0x1
  1710   000061                     	ds	106
  1711                           
  1712                           	psect	cstackCOMRAM
  1713   000001                     __pcstackCOMRAM:
  1714                           	callstack 0
  1715   000001                     ?_adc_read:
  1716                           	callstack 0
  1717   000001                     ?___awmod:
  1718                           	callstack 0
  1719   000001                     os_task_pos@task:
  1720                           	callstack 0
  1721   000001                     adc_go@go_done:
  1722                           	callstack 0
  1723   000001                     ___awmod@dividend:
  1724                           	callstack 0
  1725   000001                     ??_os_idle_task:
  1726   000001                     
  1727                           ; 1 bytes @ 0x0
  1728   000001                     	ds	1
  1729   000002                     os_task_time_decrease@i:
  1730                           	callstack 0
  1731                           
  1732                           ; 1 bytes @ 0x1
  1733   000002                     	ds	1
  1734   000003                     ___awmod@divisor:
  1735                           	callstack 0
  1736   000003                     ??_tarefa_1:
  1737   000003                     
  1738                           ; 1 bytes @ 0x2
  1739   000003                     	ds	1
  1740   000004                     tarefa_1@pot:
  1741                           	callstack 0
  1742                           
  1743                           ; 2 bytes @ 0x3
  1744   000004                     	ds	1
  1745   000005                     os_task_pos@i:
  1746                           	callstack 0
  1747   000005                     ___awmod@counter:
  1748                           	callstack 0
  1749   000005                     
  1750                           ; 1 bytes @ 0x4
  1751   000005                     	ds	1
  1752   000006                     set_port@port:
  1753                           	callstack 0
  1754   000006                     config_adc@cclk:
  1755                           	callstack 0
  1756   000006                     ___awmod@sign:
  1757                           	callstack 0
  1758   000006                     os_create_task@task_f:
  1759                           	callstack 0
  1760   000006                     SRAMInitHeap@pHeap:
  1761                           	callstack 0
  1762   000006                     ??_set_channel:
  1763   000006                     
  1764                           ; 1 bytes @ 0x5
  1765   000006                     	ds	1
  1766   000007                     ?_rr_scheduler:
  1767                           	callstack 0
  1768   000007                     set_channel@channel:
  1769                           	callstack 0
  1770   000007                     ??_config_adc:
  1771                           
  1772                           ; 1 bytes @ 0x6
  1773   000007                     	ds	1
  1774   000008                     os_create_task@prior:
  1775                           	callstack 0
  1776   000008                     config_adc@tad:
  1777                           	callstack 0
  1778   000008                     SRAMInitHeap@count:
  1779                           	callstack 0
  1780                           
  1781                           ; 2 bytes @ 0x7
  1782   000008                     	ds	1
  1783   000009                     ??_os_create_task:
  1784   000009                     ??_rr_scheduler:
  1785                           
  1786                           ; 1 bytes @ 0x8
  1787   000009                     	ds	1
  1788   00000A                     
  1789                           ; 1 bytes @ 0x9
  1790   00000A                     	ds	1
  1791   00000B                     rr_scheduler@idle_selected:
  1792                           	callstack 0
  1793                           
  1794                           ; 1 bytes @ 0xA
  1795   00000B                     	ds	1
  1796   00000C                     rr_scheduler@pos_task_running:
  1797                           	callstack 0
  1798                           
  1799                           ; 1 bytes @ 0xB
  1800   00000C                     	ds	1
  1801   00000D                     ??_ISR_TIMER_0:
  1802                           
  1803                           ; 1 bytes @ 0xC
  1804   00000D                     	ds	13
  1805                           
  1806 ;;
  1807 ;;Main: autosize = 0, tempsize = 0, incstack = 0, save=0
  1808 ;;
  1809 ;; *************** function _main *****************
  1810 ;; Defined at:
  1811 ;;		line 7 in file "main.c"
  1812 ;; Parameters:    Size  Location     Type
  1813 ;;		None
  1814 ;; Auto vars:     Size  Location     Type
  1815 ;;		None
  1816 ;; Return value:  Size  Location     Type
  1817 ;;                  2   12[None  ] int 
  1818 ;; Registers used:
  1819 ;;		wreg, fsr1l, fsr1h, fsr2l, fsr2h, status,2, status,0, prodl, prodh, cstack
  1820 ;; Tracked objects:
  1821 ;;		On entry : 0/0
  1822 ;;		On exit  : 0/0
  1823 ;;		Unchanged: 0/0
  1824 ;; Data sizes:     COMRAM   BANK0   BANK1   BANK2   BANK3   BANK4   BANK5   BANK6   BANK7
  1825 ;;      Params:         0       0       0       0       0       0       0       0       0
  1826 ;;      Locals:         0       0       0       0       0       0       0       0       0
  1827 ;;      Temps:          0       0       0       0       0       0       0       0       0
  1828 ;;      Totals:         0       0       0       0       0       0       0       0       0
  1829 ;;Total ram usage:        0 bytes
  1830 ;; Hardware stack levels required when called: 9
  1831 ;; This function calls:
  1832 ;;		_os_config
  1833 ;;		_os_create_task
  1834 ;;		_os_start
  1835 ;; This function is called by:
  1836 ;;		Startup code after reset
  1837 ;; This function uses a non-reentrant model
  1838 ;;
  1839                           
  1840                           	psect	text0
  1841   000EAA                     __ptext0:
  1842                           	callstack 0
  1843   000EAA                     _main:
  1844                           	callstack 22
  1845   000EAA                     
  1846                           ;main.c: 17:     os_config();
  1847   000EAA  EC42  F007         	call	_os_config	;wreg free
  1848                           
  1849                           ;main.c: 20:     os_create_task(100, tarefa_1, 5);
  1850   000EAE  0E6A               	movlw	low _tarefa_1
  1851   000EB0  6E06               	movwf	os_create_task@task_f^0,c
  1852   000EB2  0E0B               	movlw	high _tarefa_1
  1853   000EB4  6E07               	movwf	(os_create_task@task_f+1)^0,c
  1854   000EB6  0E05               	movlw	5
  1855   000EB8  6E08               	movwf	os_create_task@prior^0,c
  1856   000EBA  0E64               	movlw	100
  1857   000EBC  EC04  F007         	call	_os_create_task
  1858   000EC0                     
  1859                           ;main.c: 24:     os_start();
  1860   000EC0  ECBA  F007         	call	_os_start	;wreg free
  1861   000EC4                     l13:
  1862   000EC4  EF62  F007         	goto	l13
  1863   000EC8  EF07  F000         	goto	start
  1864   000ECC                     __end_of_main:
  1865                           	callstack 0
  1866                           
  1867 ;; *************** function _os_start *****************
  1868 ;; Defined at:
  1869 ;;		line 23 in file "kernel.c"
  1870 ;; Parameters:    Size  Location     Type
  1871 ;;		None
  1872 ;; Auto vars:     Size  Location     Type
  1873 ;;		None
  1874 ;; Return value:  Size  Location     Type
  1875 ;;                  1    wreg      void 
  1876 ;; Registers used:
  1877 ;;		wreg, fsr2l, fsr2h, status,2, status,0, cstack
  1878 ;; Tracked objects:
  1879 ;;		On entry : 0/0
  1880 ;;		On exit  : 0/0
  1881 ;;		Unchanged: 0/0
  1882 ;; Data sizes:     COMRAM   BANK0   BANK1   BANK2   BANK3   BANK4   BANK5   BANK6   BANK7
  1883 ;;      Params:         0       0       0       0       0       0       0       0       0
  1884 ;;      Locals:         0       0       0       0       0       0       0       0       0
  1885 ;;      Temps:          0       0       0       0       0       0       0       0       0
  1886 ;;      Totals:         0       0       0       0       0       0       0       0       0
  1887 ;;Total ram usage:        0 bytes
  1888 ;; Hardware stack levels used: 1
  1889 ;; Hardware stack levels required when called: 8
  1890 ;; This function calls:
  1891 ;;		_SRAMInitHeap
  1892 ;;		_conf_interrupts
  1893 ;;		_conf_timer_0
  1894 ;;		_config_app
  1895 ;; This function is called by:
  1896 ;;		_main
  1897 ;; This function uses a non-reentrant model
  1898 ;;
  1899                           
  1900                           	psect	text1
  1901   000F74                     __ptext1:
  1902                           	callstack 0
  1903   000F74                     _os_start:
  1904                           	callstack 22
  1905   000F74                     
  1906                           ;kernel.c: 26:     conf_interrupts();
  1907   000F74  ECD8  F007         	call	_conf_interrupts	;wreg free
  1908   000F78                     
  1909                           ;kernel.c: 30:     SRAMInitHeap();
  1910   000F78  ECAA  F006         	call	_SRAMInitHeap	;wreg free
  1911   000F7C                     
  1912                           ;kernel.c: 34:     config_app();
  1913   000F7C  EC86  F007         	call	_config_app	;wreg free
  1914   000F80                     
  1915                           ;kernel.c: 36:     conf_timer_0();
  1916   000F80  EC95  F007         	call	_conf_timer_0	;wreg free
  1917   000F84                     
  1918                           ;kernel.c: 39:     (INTCONbits.GIE = 1);
  1919   000F84  8EF2               	bsf	242,7,c	;volatile
  1920   000F86  0012               	return		;funcret
  1921   000F88                     __end_of_os_start:
  1922                           	callstack 0
  1923                           
  1924 ;; *************** function _config_app *****************
  1925 ;; Defined at:
  1926 ;;		line 78 in file "user_app.c"
  1927 ;; Parameters:    Size  Location     Type
  1928 ;;		None
  1929 ;; Auto vars:     Size  Location     Type
  1930 ;;		None
  1931 ;; Return value:  Size  Location     Type
  1932 ;;                  1    wreg      void 
  1933 ;; Registers used:
  1934 ;;		wreg, status,2, status,0, cstack
  1935 ;; Tracked objects:
  1936 ;;		On entry : 0/0
  1937 ;;		On exit  : 0/0
  1938 ;;		Unchanged: 0/0
  1939 ;; Data sizes:     COMRAM   BANK0   BANK1   BANK2   BANK3   BANK4   BANK5   BANK6   BANK7
  1940 ;;      Params:         0       0       0       0       0       0       0       0       0
  1941 ;;      Locals:         0       0       0       0       0       0       0       0       0
  1942 ;;      Temps:          0       0       0       0       0       0       0       0       0
  1943 ;;      Totals:         0       0       0       0       0       0       0       0       0
  1944 ;;Total ram usage:        0 bytes
  1945 ;; Hardware stack levels used: 1
  1946 ;; Hardware stack levels required when called: 7
  1947 ;; This function calls:
  1948 ;;		_config_adc
  1949 ;;		_set_channel
  1950 ;;		_set_port
  1951 ;; This function is called by:
  1952 ;;		_os_start
  1953 ;; This function uses a non-reentrant model
  1954 ;;
  1955                           
  1956                           	psect	text2
  1957   000F0C                     __ptext2:
  1958                           	callstack 0
  1959   000F0C                     _config_app:
  1960                           	callstack 22
  1961   000F0C                     
  1962                           ;user_app.c: 80:     set_channel(CHANNEL_0);
  1963   000F0C  0E00               	movlw	0
  1964   000F0E  ECAF  F007         	call	_set_channel
  1965                           
  1966                           ;user_app.c: 81:     set_port(AN00);
  1967   000F12  0E0E               	movlw	14
  1968   000F14  ECC4  F007         	call	_set_port
  1969                           
  1970                           ;user_app.c: 82:     config_adc(TAD12, FOSC4);
  1971   000F18  0E04               	movlw	4
  1972   000F1A  6E06               	movwf	config_adc@cclk^0,c
  1973   000F1C  0E05               	movlw	5
  1974   000F1E  EC66  F007         	call	_config_adc
  1975   000F22                     
  1976                           ;user_app.c: 84:     TRISCbits.RC0 = TRISCbits.RC1 = 0;
  1977   000F22  9294               	bcf	148,1,c	;volatile
  1978   000F24  9094               	bcf	148,0,c	;volatile
  1979   000F26                     
  1980                           ;user_app.c: 85:     TRISDbits.RD0 = 0;
  1981   000F26  9095               	bcf	149,0,c	;# 
  1982   000F28  0012               	return		;funcret
  1983   000F2A                     __end_of_config_app:
  1984                           	callstack 0
  1985                           
  1986 ;; *************** function _set_port *****************
  1987 ;; Defined at:
  1988 ;;		line 10 in file "io.c"
  1989 ;; Parameters:    Size  Location     Type
  1990 ;;  port            1    wreg     enum E3132
  1991 ;; Auto vars:     Size  Location     Type
  1992 ;;  port            1    5[COMRAM] enum E3132
  1993 ;; Return value:  Size  Location     Type
  1994 ;;                  1    wreg      void 
  1995 ;; Registers used:
  1996 ;;		wreg, status,2, status,0
  1997 ;; Tracked objects:
  1998 ;;		On entry : 0/0
  1999 ;;		On exit  : 0/0
  2000 ;;		Unchanged: 0/0
  2001 ;; Data sizes:     COMRAM   BANK0   BANK1   BANK2   BANK3   BANK4   BANK5   BANK6   BANK7
  2002 ;;      Params:         0       0       0       0       0       0       0       0       0
  2003 ;;      Locals:         1       0       0       0       0       0       0       0       0
  2004 ;;      Temps:          0       0       0       0       0       0       0       0       0
  2005 ;;      Totals:         1       0       0       0       0       0       0       0       0
  2006 ;;Total ram usage:        1 bytes
  2007 ;; Hardware stack levels used: 1
  2008 ;; Hardware stack levels required when called: 6
  2009 ;; This function calls:
  2010 ;;		Nothing
  2011 ;; This function is called by:
  2012 ;;		_config_app
  2013 ;; This function uses a non-reentrant model
  2014 ;;
  2015                           
  2016                           	psect	text3
  2017   000F88                     __ptext3:
  2018                           	callstack 0
  2019   000F88                     _set_port:
  2020                           	callstack 22
  2021                           
  2022                           ;incstack = 0
  2023                           ;set_port@port stored from wreg
  2024   000F88  6E06               	movwf	set_port@port^0,c
  2025   000F8A                     
  2026                           ;io.c: 10: void set_port(port_conf_t port);io.c: 11: {;io.c: 12:     ADCON1bits.PCFG = p
      +                          ort;
  2027   000F8A  50C1               	movf	193,w,c	;volatile
  2028   000F8C  1806               	xorwf	set_port@port^0,w,c
  2029   000F8E  0BF0               	andlw	-16
  2030   000F90  1806               	xorwf	set_port@port^0,w,c
  2031   000F92  6EC1               	movwf	193,c	;volatile
  2032   000F94  0012               	return		;funcret
  2033   000F96                     __end_of_set_port:
  2034                           	callstack 0
  2035                           
  2036 ;; *************** function _set_channel *****************
  2037 ;; Defined at:
  2038 ;;		line 5 in file "io.c"
  2039 ;; Parameters:    Size  Location     Type
  2040 ;;  channel         1    wreg     enum E3117
  2041 ;; Auto vars:     Size  Location     Type
  2042 ;;  channel         1    6[COMRAM] enum E3117
  2043 ;; Return value:  Size  Location     Type
  2044 ;;                  1    wreg      void 
  2045 ;; Registers used:
  2046 ;;		wreg, status,2, status,0
  2047 ;; Tracked objects:
  2048 ;;		On entry : 0/0
  2049 ;;		On exit  : 0/0
  2050 ;;		Unchanged: 0/0
  2051 ;; Data sizes:     COMRAM   BANK0   BANK1   BANK2   BANK3   BANK4   BANK5   BANK6   BANK7
  2052 ;;      Params:         0       0       0       0       0       0       0       0       0
  2053 ;;      Locals:         1       0       0       0       0       0       0       0       0
  2054 ;;      Temps:          1       0       0       0       0       0       0       0       0
  2055 ;;      Totals:         2       0       0       0       0       0       0       0       0
  2056 ;;Total ram usage:        2 bytes
  2057 ;; Hardware stack levels used: 1
  2058 ;; Hardware stack levels required when called: 6
  2059 ;; This function calls:
  2060 ;;		Nothing
  2061 ;; This function is called by:
  2062 ;;		_config_app
  2063 ;; This function uses a non-reentrant model
  2064 ;;
  2065                           
  2066                           	psect	text4
  2067   000F5E                     __ptext4:
  2068                           	callstack 0
  2069   000F5E                     _set_channel:
  2070                           	callstack 22
  2071                           
  2072                           ;incstack = 0
  2073                           ;set_channel@channel stored from wreg
  2074   000F5E  6E07               	movwf	set_channel@channel^0,c
  2075   000F60                     
  2076                           ;io.c: 5: void set_channel(channel_t channel);io.c: 6: {;io.c: 7:     ADCON0bits.CHS = c
      +                          hannel;
  2077   000F60  C007  F006         	movff	set_channel@channel,??_set_channel
  2078   000F64  4606               	rlncf	??_set_channel^0,f,c
  2079   000F66  4606               	rlncf	??_set_channel^0,f,c
  2080   000F68  50C2               	movf	194,w,c	;volatile
  2081   000F6A  1806               	xorwf	??_set_channel^0,w,c
  2082   000F6C  0BC3               	andlw	-61
  2083   000F6E  1806               	xorwf	??_set_channel^0,w,c
  2084   000F70  6EC2               	movwf	194,c	;volatile
  2085   000F72  0012               	return		;funcret
  2086   000F74                     __end_of_set_channel:
  2087                           	callstack 0
  2088                           
  2089 ;; *************** function _config_adc *****************
  2090 ;; Defined at:
  2091 ;;		line 15 in file "io.c"
  2092 ;; Parameters:    Size  Location     Type
  2093 ;;  tad             1    wreg     enum E3148
  2094 ;;  cclk            1    5[COMRAM] enum E3158
  2095 ;; Auto vars:     Size  Location     Type
  2096 ;;  tad             1    7[COMRAM] enum E3148
  2097 ;; Return value:  Size  Location     Type
  2098 ;;                  1    wreg      void 
  2099 ;; Registers used:
  2100 ;;		wreg, status,2, status,0
  2101 ;; Tracked objects:
  2102 ;;		On entry : 0/0
  2103 ;;		On exit  : 0/0
  2104 ;;		Unchanged: 0/0
  2105 ;; Data sizes:     COMRAM   BANK0   BANK1   BANK2   BANK3   BANK4   BANK5   BANK6   BANK7
  2106 ;;      Params:         1       0       0       0       0       0       0       0       0
  2107 ;;      Locals:         1       0       0       0       0       0       0       0       0
  2108 ;;      Temps:          1       0       0       0       0       0       0       0       0
  2109 ;;      Totals:         3       0       0       0       0       0       0       0       0
  2110 ;;Total ram usage:        3 bytes
  2111 ;; Hardware stack levels used: 1
  2112 ;; Hardware stack levels required when called: 6
  2113 ;; This function calls:
  2114 ;;		Nothing
  2115 ;; This function is called by:
  2116 ;;		_config_app
  2117 ;; This function uses a non-reentrant model
  2118 ;;
  2119                           
  2120                           	psect	text5
  2121   000ECC                     __ptext5:
  2122                           	callstack 0
  2123   000ECC                     _config_adc:
  2124                           	callstack 22
  2125                           
  2126                           ;incstack = 0
  2127                           ;config_adc@tad stored from wreg
  2128   000ECC  6E08               	movwf	config_adc@tad^0,c
  2129   000ECE                     
  2130                           ;io.c: 15: void config_adc(tad_t tad, conversion_clock_t cclk);io.c: 16: {;io.c: 17:    
      +                           ADCON2bits.ACQT = tad;
  2131   000ECE  C008  F007         	movff	config_adc@tad,??_config_adc
  2132   000ED2  4607               	rlncf	??_config_adc^0,f,c
  2133   000ED4  4607               	rlncf	??_config_adc^0,f,c
  2134   000ED6  4607               	rlncf	??_config_adc^0,f,c
  2135   000ED8  50C0               	movf	192,w,c	;volatile
  2136   000EDA  1807               	xorwf	??_config_adc^0,w,c
  2137   000EDC  0BC7               	andlw	-57
  2138   000EDE  1807               	xorwf	??_config_adc^0,w,c
  2139   000EE0  6EC0               	movwf	192,c	;volatile
  2140                           
  2141                           ;io.c: 18:     ADCON2bits.ADCS = cclk;
  2142   000EE2  50C0               	movf	192,w,c	;volatile
  2143   000EE4  1806               	xorwf	config_adc@cclk^0,w,c
  2144   000EE6  0BF8               	andlw	-8
  2145   000EE8  1806               	xorwf	config_adc@cclk^0,w,c
  2146   000EEA  6EC0               	movwf	192,c	;volatile
  2147   000EEC  0012               	return		;funcret
  2148   000EEE                     __end_of_config_adc:
  2149                           	callstack 0
  2150                           
  2151 ;; *************** function _conf_timer_0 *****************
  2152 ;; Defined at:
  2153 ;;		line 7 in file "hardware.c"
  2154 ;; Parameters:    Size  Location     Type
  2155 ;;		None
  2156 ;; Auto vars:     Size  Location     Type
  2157 ;;		None
  2158 ;; Return value:  Size  Location     Type
  2159 ;;                  1    wreg      void 
  2160 ;; Registers used:
  2161 ;;		wreg, status,2
  2162 ;; Tracked objects:
  2163 ;;		On entry : 0/0
  2164 ;;		On exit  : 0/0
  2165 ;;		Unchanged: 0/0
  2166 ;; Data sizes:     COMRAM   BANK0   BANK1   BANK2   BANK3   BANK4   BANK5   BANK6   BANK7
  2167 ;;      Params:         0       0       0       0       0       0       0       0       0
  2168 ;;      Locals:         0       0       0       0       0       0       0       0       0
  2169 ;;      Temps:          0       0       0       0       0       0       0       0       0
  2170 ;;      Totals:         0       0       0       0       0       0       0       0       0
  2171 ;;Total ram usage:        0 bytes
  2172 ;; Hardware stack levels used: 1
  2173 ;; Hardware stack levels required when called: 6
  2174 ;; This function calls:
  2175 ;;		Nothing
  2176 ;; This function is called by:
  2177 ;;		_os_start
  2178 ;; This function uses a non-reentrant model
  2179 ;;
  2180                           
  2181                           	psect	text6
  2182   000F2A                     __ptext6:
  2183                           	callstack 0
  2184   000F2A                     _conf_timer_0:
  2185                           	callstack 23
  2186   000F2A                     
  2187                           ;hardware.c: 10:     T0CONbits.T0CS = 0;
  2188   000F2A  9AD5               	bcf	213,5,c	;volatile
  2189                           
  2190                           ;hardware.c: 11:     T0CONbits.PSA = 0;
  2191   000F2C  96D5               	bcf	213,3,c	;volatile
  2192   000F2E                     
  2193                           ;hardware.c: 12:     T0CONbits.T0PS = 0b110;
  2194   000F2E  50D5               	movf	213,w,c	;volatile
  2195   000F30  0BF8               	andlw	-8
  2196   000F32  0906               	iorlw	6
  2197   000F34  6ED5               	movwf	213,c	;volatile
  2198                           
  2199                           ;hardware.c: 13:     TMR0 = 128;
  2200   000F36  0E00               	movlw	0
  2201   000F38  6ED7               	movwf	215,c	;volatile
  2202   000F3A  0E80               	movlw	128
  2203   000F3C  6ED6               	movwf	214,c	;volatile
  2204   000F3E                     
  2205                           ;hardware.c: 14:     INTCONbits.TMR0IE = 1;
  2206   000F3E  8AF2               	bsf	242,5,c	;volatile
  2207   000F40                     
  2208                           ;hardware.c: 15:     INTCONbits.TMR0IF = 0;
  2209   000F40  94F2               	bcf	242,2,c	;volatile
  2210   000F42                     
  2211                           ;hardware.c: 16:     T0CONbits.TMR0ON = 1;
  2212   000F42  8ED5               	bsf	213,7,c	;volatile
  2213   000F44  0012               	return		;funcret
  2214   000F46                     __end_of_conf_timer_0:
  2215                           	callstack 0
  2216                           
  2217 ;; *************** function _conf_interrupts *****************
  2218 ;; Defined at:
  2219 ;;		line 19 in file "hardware.c"
  2220 ;; Parameters:    Size  Location     Type
  2221 ;;		None
  2222 ;; Auto vars:     Size  Location     Type
  2223 ;;		None
  2224 ;; Return value:  Size  Location     Type
  2225 ;;                  1    wreg      void 
  2226 ;; Registers used:
  2227 ;;		None
  2228 ;; Tracked objects:
  2229 ;;		On entry : 0/0
  2230 ;;		On exit  : 0/0
  2231 ;;		Unchanged: 0/0
  2232 ;; Data sizes:     COMRAM   BANK0   BANK1   BANK2   BANK3   BANK4   BANK5   BANK6   BANK7
  2233 ;;      Params:         0       0       0       0       0       0       0       0       0
  2234 ;;      Locals:         0       0       0       0       0       0       0       0       0
  2235 ;;      Temps:          0       0       0       0       0       0       0       0       0
  2236 ;;      Totals:         0       0       0       0       0       0       0       0       0
  2237 ;;Total ram usage:        0 bytes
  2238 ;; Hardware stack levels used: 1
  2239 ;; Hardware stack levels required when called: 6
  2240 ;; This function calls:
  2241 ;;		Nothing
  2242 ;; This function is called by:
  2243 ;;		_os_start
  2244 ;; This function uses a non-reentrant model
  2245 ;;
  2246                           
  2247                           	psect	text7
  2248   000FB0                     __ptext7:
  2249                           	callstack 0
  2250   000FB0                     _conf_interrupts:
  2251                           	callstack 23
  2252   000FB0                     
  2253                           ;hardware.c: 21:     INTCONbits.PEIE = 1;
  2254   000FB0  8CF2               	bsf	242,6,c	;volatile
  2255   000FB2  0012               	return		;funcret
  2256   000FB4                     __end_of_conf_interrupts:
  2257                           	callstack 0
  2258                           
  2259 ;; *************** function _SRAMInitHeap *****************
  2260 ;; Defined at:
  2261 ;;		line 276 in file "mem.c"
  2262 ;; Parameters:    Size  Location     Type
  2263 ;;		None
  2264 ;; Auto vars:     Size  Location     Type
  2265 ;;  count           2    7[COMRAM] unsigned int 
  2266 ;;  pHeap           2    5[COMRAM] PTR unsigned char 
  2267 ;;		 -> _uDynamicHeap(512), 
  2268 ;; Return value:  Size  Location     Type
  2269 ;;                  1    wreg      void 
  2270 ;; Registers used:
  2271 ;;		wreg, fsr2l, fsr2h, status,2, status,0
  2272 ;; Tracked objects:
  2273 ;;		On entry : 0/0
  2274 ;;		On exit  : 0/0
  2275 ;;		Unchanged: 0/0
  2276 ;; Data sizes:     COMRAM   BANK0   BANK1   BANK2   BANK3   BANK4   BANK5   BANK6   BANK7
  2277 ;;      Params:         0       0       0       0       0       0       0       0       0
  2278 ;;      Locals:         4       0       0       0       0       0       0       0       0
  2279 ;;      Temps:          0       0       0       0       0       0       0       0       0
  2280 ;;      Totals:         4       0       0       0       0       0       0       0       0
  2281 ;;Total ram usage:        4 bytes
  2282 ;; Hardware stack levels used: 1
  2283 ;; Hardware stack levels required when called: 6
  2284 ;; This function calls:
  2285 ;;		Nothing
  2286 ;; This function is called by:
  2287 ;;		_os_start
  2288 ;; This function uses a non-reentrant model
  2289 ;;
  2290                           
  2291                           	psect	text8
  2292   000D54                     __ptext8:
  2293                           	callstack 0
  2294   000D54                     _SRAMInitHeap:
  2295                           	callstack 23
  2296   000D54                     
  2297                           ;mem.c: 278:  unsigned char * pHeap;;mem.c: 279:       unsigned int count;;mem.c: 281:  
      +                          pHeap = _uDynamicHeap;
  2298   000D54  0EE0               	movlw	low __uDynamicHeap
  2299   000D56  6E06               	movwf	SRAMInitHeap@pHeap^0,c
  2300   000D58  0E02               	movlw	high __uDynamicHeap
  2301   000D5A  6E07               	movwf	(SRAMInitHeap@pHeap+1)^0,c
  2302   000D5C                     
  2303                           ;mem.c: 282:  count = 0x200 -1;
  2304   000D5C  0E01               	movlw	1
  2305   000D5E  6E09               	movwf	(SRAMInitHeap@count+1)^0,c
  2306   000D60  6808               	setf	SRAMInitHeap@count^0,c
  2307   000D62                     l1113:
  2308                           
  2309                           ;mem.c: 285:  {;mem.c: 286:   if (count > 0x7F)
  2310   000D62  5009               	movf	(SRAMInitHeap@count+1)^0,w,c
  2311   000D64  E109               	bnz	u100
  2312   000D66  0E80               	movlw	128
  2313   000D68  5C08               	subwf	SRAMInitHeap@count^0,w,c
  2314   000D6A  A0D8               	btfss	status,0,c
  2315   000D6C  EFBA  F006         	goto	u101
  2316   000D70  EFBC  F006         	goto	u100
  2317   000D74                     u101:
  2318   000D74  EFCE  F006         	goto	l1121
  2319   000D78                     u100:
  2320   000D78                     
  2321                           ;mem.c: 287:   {;mem.c: 288:    *pHeap = 0x7F;
  2322   000D78  C006  FFD9         	movff	SRAMInitHeap@pHeap,fsr2l
  2323   000D7C  C007  FFDA         	movff	SRAMInitHeap@pHeap+1,fsr2h
  2324   000D80  0E7F               	movlw	127
  2325   000D82  6EDF               	movwf	indf2,c
  2326   000D84                     
  2327                           ;mem.c: 289:    pHeap += 0x7F;
  2328   000D84  0E7F               	movlw	127
  2329   000D86  2606               	addwf	SRAMInitHeap@pHeap^0,f,c
  2330   000D88  0E00               	movlw	0
  2331   000D8A  2207               	addwfc	(SRAMInitHeap@pHeap+1)^0,f,c
  2332   000D8C                     
  2333                           ;mem.c: 290:    count = count - 0x7F;
  2334   000D8C  0E81               	movlw	129
  2335   000D8E  2408               	addwf	SRAMInitHeap@count^0,w,c
  2336   000D90  6E08               	movwf	SRAMInitHeap@count^0,c
  2337   000D92  0EFF               	movlw	255
  2338   000D94  2009               	addwfc	(SRAMInitHeap@count+1)^0,w,c
  2339   000D96  6E09               	movwf	(SRAMInitHeap@count+1)^0,c
  2340                           
  2341                           ;mem.c: 291:   }
  2342   000D98  EFB1  F006         	goto	l1113
  2343   000D9C                     l1121:
  2344                           
  2345                           ;mem.c: 293:   {;mem.c: 294:    *pHeap = count;
  2346   000D9C  C006  FFD9         	movff	SRAMInitHeap@pHeap,fsr2l
  2347   000DA0  C007  FFDA         	movff	SRAMInitHeap@pHeap+1,fsr2h
  2348   000DA4  C008  FFDF         	movff	SRAMInitHeap@count,indf2
  2349   000DA8                     
  2350                           ;mem.c: 295:    *(pHeap + count) = 0;
  2351   000DA8  5008               	movf	SRAMInitHeap@count^0,w,c
  2352   000DAA  2406               	addwf	SRAMInitHeap@pHeap^0,w,c
  2353   000DAC  6ED9               	movwf	fsr2l,c
  2354   000DAE  5009               	movf	(SRAMInitHeap@count+1)^0,w,c
  2355   000DB0  2007               	addwfc	(SRAMInitHeap@pHeap+1)^0,w,c
  2356   000DB2  6EDA               	movwf	fsr2h,c
  2357   000DB4  6ADF               	clrf	indf2,c
  2358   000DB6  0012               	return		;funcret
  2359   000DB8                     __end_of_SRAMInitHeap:
  2360                           	callstack 0
  2361                           
  2362 ;; *************** function _os_config *****************
  2363 ;; Defined at:
  2364 ;;		line 12 in file "kernel.c"
  2365 ;; Parameters:    Size  Location     Type
  2366 ;;		None
  2367 ;; Auto vars:     Size  Location     Type
  2368 ;;		None
  2369 ;; Return value:  Size  Location     Type
  2370 ;;                  1    wreg      void 
  2371 ;; Registers used:
  2372 ;;		wreg, fsr1l, fsr1h, fsr2l, fsr2h, status,2, status,0, prodl, prodh, cstack
  2373 ;; Tracked objects:
  2374 ;;		On entry : 0/0
  2375 ;;		On exit  : 0/0
  2376 ;;		Unchanged: 0/0
  2377 ;; Data sizes:     COMRAM   BANK0   BANK1   BANK2   BANK3   BANK4   BANK5   BANK6   BANK7
  2378 ;;      Params:         0       0       0       0       0       0       0       0       0
  2379 ;;      Locals:         0       0       0       0       0       0       0       0       0
  2380 ;;      Temps:          0       0       0       0       0       0       0       0       0
  2381 ;;      Totals:         0       0       0       0       0       0       0       0       0
  2382 ;;Total ram usage:        0 bytes
  2383 ;; Hardware stack levels used: 1
  2384 ;; Hardware stack levels required when called: 7
  2385 ;; This function calls:
  2386 ;;		_os_create_task
  2387 ;; This function is called by:
  2388 ;;		_main
  2389 ;; This function uses a non-reentrant model
  2390 ;;
  2391                           
  2392                           	psect	text9
  2393   000E84                     __ptext9:
  2394                           	callstack 0
  2395   000E84                     _os_config:
  2396                           	callstack 23
  2397   000E84                     
  2398                           ;kernel.c: 14:     readyQueue.readyQueueSize = 0;
  2399   000E84  0E00               	movlw	0
  2400   000E86  CFE8 F2DD          	movff	wreg,_readyQueue+530
  2401                           
  2402                           ;kernel.c: 15:     readyQueue.taskRunning = 0;
  2403   000E8A  0E00               	movlw	0
  2404   000E8C  CFE8 F2DE          	movff	wreg,_readyQueue+531
  2405   000E90  0E00               	movlw	0
  2406   000E92  CFE8 F2DF          	movff	wreg,_readyQueue+532
  2407   000E96                     
  2408                           ;kernel.c: 18:     os_create_task(0, os_idle_task, 1);
  2409   000E96  0E56               	movlw	low _os_idle_task
  2410   000E98  6E06               	movwf	os_create_task@task_f^0,c
  2411   000E9A  0E0E               	movlw	high _os_idle_task
  2412   000E9C  6E07               	movwf	(os_create_task@task_f+1)^0,c
  2413   000E9E  0E01               	movlw	1
  2414   000EA0  6E08               	movwf	os_create_task@prior^0,c
  2415   000EA2  0E00               	movlw	0
  2416   000EA4  EC04  F007         	call	_os_create_task	;# 
  2417   000EA8  0012               	return		;funcret
  2418   000EAA                     __end_of_os_config:
  2419                           	callstack 0
  2420                           
  2421 ;; *************** function _os_create_task *****************
  2422 ;; Defined at:
  2423 ;;		line 9 in file "syscall.c"
  2424 ;; Parameters:    Size  Location     Type
  2425 ;;  id              1    wreg     unsigned char 
  2426 ;;  task_f          2    5[COMRAM] PTR FTN()void 
  2427 ;;		 -> os_idle_task(1), tarefa_1(1), 
  2428 ;;  prior           1    7[COMRAM] unsigned char 
  2429 ;; Auto vars:     Size  Location     Type
  2430 ;;  id              1    0[BANK0 ] unsigned char 
  2431 ;;  new_task      106    1[BANK0 ] struct tcb
  2432 ;; Return value:  Size  Location     Type
  2433 ;;                  1    wreg      void 
  2434 ;; Registers used:
  2435 ;;		wreg, fsr1l, fsr1h, fsr2l, fsr2h, status,2, status,0, prodl, prodh
  2436 ;; Tracked objects:
  2437 ;;		On entry : 0/0
  2438 ;;		On exit  : 0/0
  2439 ;;		Unchanged: 0/0
  2440 ;; Data sizes:     COMRAM   BANK0   BANK1   BANK2   BANK3   BANK4   BANK5   BANK6   BANK7
  2441 ;;      Params:         3       0       0       0       0       0       0       0       0
  2442 ;;      Locals:         0     107       0       0       0       0       0       0       0
  2443 ;;      Temps:          1       0       0       0       0       0       0       0       0
  2444 ;;      Totals:         4     107       0       0       0       0       0       0       0
  2445 ;;Total ram usage:      111 bytes
  2446 ;; Hardware stack levels used: 1
  2447 ;; Hardware stack levels required when called: 6
  2448 ;; This function calls:
  2449 ;;		Nothing
  2450 ;; This function is called by:
  2451 ;;		_main
  2452 ;;		_os_config
  2453 ;; This function uses a non-reentrant model
  2454 ;;
  2455                           
  2456                           	psect	text10
  2457   000E08                     __ptext10:
  2458                           	callstack 0
  2459   000E08                     _os_create_task:
  2460                           	callstack 24
  2461                           
  2462                           ;incstack = 0
  2463                           ;os_create_task@id stored from wreg
  2464   000E08  0100               	movlb	0	; () banked
  2465   000E0A  6F60               	movwf	os_create_task@id& (0+255),b
  2466   000E0C                     
  2467                           ;syscall.c: 9: void os_create_task(uint8_t id, f_ptr task_f, uint8_t prior);syscall.c: 1
      +                          0: {;syscall.c: 11:     tcb_t new_task;;syscall.c: 13:     new_task.task_id = id;
  2468   000E0C  C060  F061         	movff	os_create_task@id,os_create_task@new_task
  2469   000E10                     
  2470                           ;syscall.c: 14:     new_task.task_func = task_f;
  2471   000E10  C006  F062         	movff	os_create_task@task_f,os_create_task@new_task+1
  2472   000E14  C007  F063         	movff	os_create_task@task_f+1,os_create_task@new_task+2
  2473   000E18                     
  2474                           ;syscall.c: 15:     new_task.task_priority = prior;
  2475   000E18  C008  F065         	movff	os_create_task@prior,os_create_task@new_task+4
  2476   000E1C                     
  2477                           ;syscall.c: 16:     new_task.task_state = READY;
  2478   000E1C  0100               	movlb	0	; () banked
  2479   000E1E  6B64               	clrf	(os_create_task@new_task+3)& (0+255),b
  2480   000E20                     
  2481                           ; BSR set to: 0
  2482                           ;syscall.c: 18:     new_task.BSR_reg = 0;
  2483   000E20  6B67               	clrf	(os_create_task@new_task+6)& (0+255),b
  2484   000E22                     
  2485                           ; BSR set to: 0
  2486                           ;syscall.c: 19:     new_task.STATUS_reg = 0;
  2487   000E22  6B69               	clrf	(os_create_task@new_task+8)& (0+255),b
  2488   000E24                     
  2489                           ; BSR set to: 0
  2490                           ;syscall.c: 20:     new_task.WORK_reg = 0;
  2491   000E24  6B68               	clrf	(os_create_task@new_task+7)& (0+255),b
  2492   000E26                     
  2493                           ; BSR set to: 0
  2494                           ;syscall.c: 21:     new_task.task_sp = 0;
  2495   000E26  6BCA               	clrf	(os_create_task@new_task+105)& (0+255),b
  2496   000E28                     
  2497                           ; BSR set to: 0
  2498                           ;syscall.c: 24:     readyQueue.readyQueue[readyQueue.readyQueueSize++] = new_task;
  2499   000E28  EE20  F061         	lfsr	2,os_create_task@new_task
  2500   000E2C  C2DD  F009         	movff	_readyQueue+530,??_os_create_task
  2501   000E30  5009               	movf	??_os_create_task^0,w,c
  2502   000E32  0D6A               	mullw	106
  2503   000E34  0ECB               	movlw	low _readyQueue
  2504   000E36  24F3               	addwf	243,w,c
  2505   000E38  6EE1               	movwf	fsr1l,c
  2506   000E3A  0E00               	movlw	high _readyQueue
  2507   000E3C  20F4               	addwfc	prodh,w,c
  2508   000E3E  6EE2               	movwf	fsr1h,c
  2509   000E40  0E69               	movlw	105
  2510   000E42                     u731:
  2511   000E42  CFDB FFE3          	movff	plusw2,plusw1
  2512   000E46  06E8               	decf	wreg,f,c
  2513   000E48  E2FC               	bc	u731
  2514   000E4A                     
  2515                           ; BSR set to: 0
  2516   000E4A  C2DD  FFE8         	movff	_readyQueue+530,wreg
  2517   000E4E  0F01               	addlw	1
  2518   000E50  CFE8 F2DD          	movff	wreg,_readyQueue+530
  2519   000E54                     
  2520                           ; BSR set to: 0
  2521   000E54  0012               	return		;funcret
  2522   000E56                     __end_of_os_create_task:
  2523                           	callstack 0
  2524                           
  2525 ;; *************** function _os_idle_task *****************
  2526 ;; Defined at:
  2527 ;;		line 43 in file "kernel.c"
  2528 ;; Parameters:    Size  Location     Type
  2529 ;;		None
  2530 ;; Auto vars:     Size  Location     Type
  2531 ;;		None
  2532 ;; Return value:  Size  Location     Type
  2533 ;;                  1    wreg      void 
  2534 ;; Registers used:
  2535 ;;		wreg, status,2, status,0
  2536 ;; Tracked objects:
  2537 ;;		On entry : 0/0
  2538 ;;		On exit  : 0/0
  2539 ;;		Unchanged: 0/0
  2540 ;; Data sizes:     COMRAM   BANK0   BANK1   BANK2   BANK3   BANK4   BANK5   BANK6   BANK7
  2541 ;;      Params:         0       0       0       0       0       0       0       0       0
  2542 ;;      Locals:         0       0       0       0       0       0       0       0       0
  2543 ;;      Temps:          1       0       0       0       0       0       0       0       0
  2544 ;;      Totals:         1       0       0       0       0       0       0       0       0
  2545 ;;Total ram usage:        1 bytes
  2546 ;; Hardware stack levels used: 1
  2547 ;; Hardware stack levels required when called: 4
  2548 ;; This function calls:
  2549 ;;		Nothing
  2550 ;; This function is called by:
  2551 ;;		_os_config
  2552 ;;		_rr_scheduler
  2553 ;; This function uses a non-reentrant model
  2554 ;;
  2555                           
  2556                           	psect	text11
  2557   000E56                     __ptext11:
  2558                           	callstack 0
  2559   000E56                     _os_idle_task:
  2560                           	callstack 23
  2561   000E56                     
  2562                           ;kernel.c: 45:     TRISDbits.RD3 = 0;
  2563   000E56  9695               	bcf	149,3,c	;volatile
  2564   000E58                     l1263:
  2565                           
  2566                           ;kernel.c: 49:         LATDbits.LD3 = ~PORTDbits.RD3;
  2567   000E58  B683               	btfsc	131,3,c	;volatile
  2568   000E5A  EF31  F007         	goto	u27_21
  2569   000E5E  EF34  F007         	goto	u27_20
  2570   000E62                     u27_21:
  2571   000E62  0E01               	movlw	1
  2572   000E64  EF35  F007         	goto	u27_26
  2573   000E68                     u27_20:
  2574   000E68  0E00               	movlw	0
  2575   000E6A                     u27_26:
  2576   000E6A  0AFF               	xorlw	255
  2577   000E6C  6E01               	movwf	??_os_idle_task^0,c
  2578   000E6E  4601               	rlncf	??_os_idle_task^0,f,c
  2579   000E70  4601               	rlncf	??_os_idle_task^0,f,c
  2580   000E72  4601               	rlncf	??_os_idle_task^0,f,c
  2581   000E74  508C               	movf	140,w,c	;volatile
  2582   000E76  1801               	xorwf	??_os_idle_task^0,w,c
  2583   000E78  0BF7               	andlw	-9
  2584   000E7A  1801               	xorwf	??_os_idle_task^0,w,c
  2585   000E7C  6E8C               	movwf	140,c	;volatile
  2586   000E7E  EF2C  F007         	goto	l1263
  2587   000E82  0012               	return		;funcret
  2588   000E84                     __end_of_os_idle_task:
  2589                           	callstack 0
  2590                           
  2591 ;; *************** function _tarefa_1 *****************
  2592 ;; Defined at:
  2593 ;;		line 90 in file "user_app.c"
  2594 ;; Parameters:    Size  Location     Type
  2595 ;;		None
  2596 ;; Auto vars:     Size  Location     Type
  2597 ;;  pot             2    3[COMRAM] int 
  2598 ;; Return value:  Size  Location     Type
  2599 ;;                  1    wreg      void 
  2600 ;; Registers used:
  2601 ;;		wreg, status,2, status,0, cstack
  2602 ;; Tracked objects:
  2603 ;;		On entry : 0/0
  2604 ;;		On exit  : 0/0
  2605 ;;		Unchanged: 0/0
  2606 ;; Data sizes:     COMRAM   BANK0   BANK1   BANK2   BANK3   BANK4   BANK5   BANK6   BANK7
  2607 ;;      Params:         0       0       0       0       0       0       0       0       0
  2608 ;;      Locals:         2       0       0       0       0       0       0       0       0
  2609 ;;      Temps:          1       0       0       0       0       0       0       0       0
  2610 ;;      Totals:         3       0       0       0       0       0       0       0       0
  2611 ;;Total ram usage:        3 bytes
  2612 ;; Hardware stack levels used: 1
  2613 ;; Hardware stack levels required when called: 5
  2614 ;; This function calls:
  2615 ;;		_adc_go
  2616 ;;		_adc_read
  2617 ;; This function is called by:
  2618 ;;		_main
  2619 ;; This function uses a non-reentrant model
  2620 ;;
  2621                           
  2622                           	psect	text12
  2623   000B6A                     __ptext12:
  2624                           	callstack 0
  2625   000B6A                     _tarefa_1:
  2626                           	callstack 22
  2627   000B6A                     
  2628                           ;user_app.c: 94:     adc_go(1);
  2629   000B6A  0E00               	movlw	0
  2630   000B6C  6E02               	movwf	(adc_go@go_done+1)^0,c
  2631   000B6E  0E01               	movlw	1
  2632   000B70  6E01               	movwf	adc_go@go_done^0,c
  2633   000B72  ECD2  F007         	call	_adc_go	;wreg free
  2634   000B76                     l1735:
  2635                           
  2636                           ;user_app.c: 97:         LATDbits.LD0 = ~PORTDbits.RD0;
  2637   000B76  B083               	btfsc	131,0,c	;volatile
  2638   000B78  EFC0  F005         	goto	u87_21
  2639   000B7C  EFC3  F005         	goto	u87_20
  2640   000B80                     u87_21:
  2641   000B80  0E01               	movlw	1
  2642   000B82  EFC4  F005         	goto	u87_26
  2643   000B86                     u87_20:
  2644   000B86  0E00               	movlw	0
  2645   000B88                     u87_26:
  2646   000B88  0AFF               	xorlw	255
  2647   000B8A  6E03               	movwf	??_tarefa_1^0,c
  2648   000B8C  508C               	movf	140,w,c	;volatile
  2649   000B8E  1803               	xorwf	??_tarefa_1^0,w,c
  2650   000B90  0BFE               	andlw	-2
  2651   000B92  1803               	xorwf	??_tarefa_1^0,w,c
  2652   000B94  6E8C               	movwf	140,c	;volatile
  2653   000B96                     
  2654                           ;user_app.c: 99:         pot = adc_read();
  2655   000B96  ECA3  F007         	call	_adc_read	;wreg free
  2656   000B9A  C001  F004         	movff	?_adc_read,tarefa_1@pot
  2657   000B9E  C002  F005         	movff	?_adc_read+1,tarefa_1@pot+1
  2658                           
  2659                           ;user_app.c: 101:         if (pot > 0 && pot < 500) {
  2660   000BA2  BE05               	btfsc	(tarefa_1@pot+1)^0,7,c
  2661   000BA4  EFDC  F005         	goto	u88_21
  2662   000BA8  5005               	movf	(tarefa_1@pot+1)^0,w,c
  2663   000BAA  E108               	bnz	u88_20
  2664   000BAC  0404               	decf	tarefa_1@pot^0,w,c
  2665   000BAE  A0D8               	btfss	status,0,c
  2666   000BB0  EFDC  F005         	goto	u88_21
  2667   000BB4  EFDE  F005         	goto	u88_20
  2668   000BB8                     u88_21:
  2669   000BB8  EFF0  F005         	goto	l1743
  2670   000BBC                     u88_20:
  2671   000BBC  BE05               	btfsc	(tarefa_1@pot+1)^0,7,c
  2672   000BBE  EFEC  F005         	goto	u89_20
  2673   000BC2  0EF4               	movlw	244
  2674   000BC4  5C04               	subwf	tarefa_1@pot^0,w,c
  2675   000BC6  0E01               	movlw	1
  2676   000BC8  5805               	subwfb	(tarefa_1@pot+1)^0,w,c
  2677   000BCA  B0D8               	btfsc	status,0,c
  2678   000BCC  EFEA  F005         	goto	u89_21
  2679   000BD0  EFEC  F005         	goto	u89_20
  2680   000BD4                     u89_21:
  2681   000BD4  EFF0  F005         	goto	l1743
  2682   000BD8                     u89_20:
  2683   000BD8                     
  2684                           ;user_app.c: 102:             LATCbits.LATC0 = 1;
  2685   000BD8  808B               	bsf	139,0,c	;volatile
  2686                           
  2687                           ;user_app.c: 103:             LATCbits.LATC1 = 0;
  2688   000BDA  928B               	bcf	139,1,c	;volatile
  2689                           
  2690                           ;user_app.c: 104:         }
  2691   000BDC  EFBB  F005         	goto	l1735
  2692   000BE0                     l1743:
  2693   000BE0  BE05               	btfsc	(tarefa_1@pot+1)^0,7,c
  2694   000BE2  EFFC  F005         	goto	u90_21
  2695   000BE6  0EF4               	movlw	244
  2696   000BE8  5C04               	subwf	tarefa_1@pot^0,w,c
  2697   000BEA  0E01               	movlw	1
  2698   000BEC  5805               	subwfb	(tarefa_1@pot+1)^0,w,c
  2699   000BEE  A0D8               	btfss	status,0,c
  2700   000BF0  EFFC  F005         	goto	u90_21
  2701   000BF4  EFFE  F005         	goto	u90_20
  2702   000BF8                     u90_21:
  2703   000BF8  EFBB  F005         	goto	l1735
  2704   000BFC                     u90_20:
  2705   000BFC  BE05               	btfsc	(tarefa_1@pot+1)^0,7,c
  2706   000BFE  EF0A  F006         	goto	u91_20
  2707   000C02  0E04               	movlw	4
  2708   000C04  5C05               	subwf	(tarefa_1@pot+1)^0,w,c
  2709   000C06  B0D8               	btfsc	status,0,c
  2710   000C08  EF08  F006         	goto	u91_21
  2711   000C0C  EF0A  F006         	goto	u91_20
  2712   000C10                     u91_21:
  2713   000C10  EFBB  F005         	goto	l1735
  2714   000C14                     u91_20:
  2715   000C14                     
  2716                           ;user_app.c: 106:             LATCbits.LATC1 = 1;
  2717   000C14  828B               	bsf	139,1,c	;volatile
  2718                           
  2719                           ;user_app.c: 107:             LATCbits.LATC0 = 0;
  2720   000C16  908B               	bcf	139,0,c	;volatile
  2721   000C18  EFBB  F005         	goto	l1735
  2722   000C1C  0012               	return		;funcret
  2723   000C1E                     __end_of_tarefa_1:
  2724                           	callstack 0
  2725                           
  2726 ;; *************** function _adc_read *****************
  2727 ;; Defined at:
  2728 ;;		line 26 in file "io.c"
  2729 ;; Parameters:    Size  Location     Type
  2730 ;;		None
  2731 ;; Auto vars:     Size  Location     Type
  2732 ;;		None
  2733 ;; Return value:  Size  Location     Type
  2734 ;;                  2    0[COMRAM] int 
  2735 ;; Registers used:
  2736 ;;		None
  2737 ;; Tracked objects:
  2738 ;;		On entry : 0/0
  2739 ;;		On exit  : 0/0
  2740 ;;		Unchanged: 0/0
  2741 ;; Data sizes:     COMRAM   BANK0   BANK1   BANK2   BANK3   BANK4   BANK5   BANK6   BANK7
  2742 ;;      Params:         2       0       0       0       0       0       0       0       0
  2743 ;;      Locals:         0       0       0       0       0       0       0       0       0
  2744 ;;      Temps:          0       0       0       0       0       0       0       0       0
  2745 ;;      Totals:         2       0       0       0       0       0       0       0       0
  2746 ;;Total ram usage:        2 bytes
  2747 ;; Hardware stack levels used: 1
  2748 ;; Hardware stack levels required when called: 4
  2749 ;; This function calls:
  2750 ;;		Nothing
  2751 ;; This function is called by:
  2752 ;;		_tarefa_1
  2753 ;; This function uses a non-reentrant model
  2754 ;;
  2755                           
  2756                           	psect	text13
  2757   000F46                     __ptext13:
  2758                           	callstack 0
  2759   000F46                     _adc_read:
  2760                           	callstack 22
  2761   000F46                     i1l350:
  2762   000F46  B2C2               	btfsc	194,1,c	;volatile
  2763   000F48  EFA8  F007         	goto	i1u79_21
  2764   000F4C  EFAA  F007         	goto	i1u79_20
  2765   000F50                     i1u79_21:
  2766   000F50  EFA3  F007         	goto	i1l350
  2767   000F54                     i1u79_20:
  2768   000F54                     
  2769                           ;io.c: 29:     return ADRES;
  2770   000F54  CFC3 F001          	movff	4035,?_adc_read	;volatile
  2771   000F58  CFC4 F002          	movff	4036,?_adc_read+1	;volatile
  2772   000F5C  0012               	return		;funcret
  2773   000F5E                     __end_of_adc_read:
  2774                           	callstack 0
  2775                           
  2776 ;; *************** function _adc_go *****************
  2777 ;; Defined at:
  2778 ;;		line 21 in file "io.c"
  2779 ;; Parameters:    Size  Location     Type
  2780 ;;  go_done         2    0[COMRAM] int 
  2781 ;; Auto vars:     Size  Location     Type
  2782 ;;		None
  2783 ;; Return value:  Size  Location     Type
  2784 ;;                  1    wreg      void 
  2785 ;; Registers used:
  2786 ;;		None
  2787 ;; Tracked objects:
  2788 ;;		On entry : 0/0
  2789 ;;		On exit  : 0/0
  2790 ;;		Unchanged: 0/0
  2791 ;; Data sizes:     COMRAM   BANK0   BANK1   BANK2   BANK3   BANK4   BANK5   BANK6   BANK7
  2792 ;;      Params:         2       0       0       0       0       0       0       0       0
  2793 ;;      Locals:         0       0       0       0       0       0       0       0       0
  2794 ;;      Temps:          0       0       0       0       0       0       0       0       0
  2795 ;;      Totals:         2       0       0       0       0       0       0       0       0
  2796 ;;Total ram usage:        2 bytes
  2797 ;; Hardware stack levels used: 1
  2798 ;; Hardware stack levels required when called: 4
  2799 ;; This function calls:
  2800 ;;		Nothing
  2801 ;; This function is called by:
  2802 ;;		_tarefa_1
  2803 ;; This function uses a non-reentrant model
  2804 ;;
  2805                           
  2806                           	psect	text14
  2807   000FA4                     __ptext14:
  2808                           	callstack 0
  2809   000FA4                     _adc_go:
  2810                           	callstack 22
  2811   000FA4                     
  2812                           ;io.c: 21: void adc_go(int go_done);io.c: 22: {;io.c: 23:     ADCON0bits.ADON = go_done;
  2813   000FA4  B001               	btfsc	adc_go@go_done^0,0,c
  2814   000FA6  D002               	bra	i1u78_25
  2815   000FA8  90C2               	bcf	194,0,c	;volatile
  2816   000FAA  D001               	bra	i1u78_26
  2817   000FAC                     i1u78_25:
  2818   000FAC  80C2               	bsf	194,0,c	;volatile
  2819   000FAE                     i1u78_26:
  2820   000FAE  0012               	return		;funcret
  2821   000FB0                     __end_of_adc_go:
  2822                           	callstack 0
  2823                           
  2824 ;; *************** function _ISR_TIMER_0 *****************
  2825 ;; Defined at:
  2826 ;;		line 25 in file "hardware.c"
  2827 ;; Parameters:    Size  Location     Type
  2828 ;;		None
  2829 ;; Auto vars:     Size  Location     Type
  2830 ;;		None
  2831 ;; Return value:  Size  Location     Type
  2832 ;;                  1    wreg      void 
  2833 ;; Registers used:
  2834 ;;		wreg, fsr1l, fsr1h, fsr2l, fsr2h, status,2, status,0, prodl, prodh, cstack
  2835 ;; Tracked objects:
  2836 ;;		On entry : 0/0
  2837 ;;		On exit  : 0/0
  2838 ;;		Unchanged: 0/0
  2839 ;; Data sizes:     COMRAM   BANK0   BANK1   BANK2   BANK3   BANK4   BANK5   BANK6   BANK7
  2840 ;;      Params:         0       0       0       0       0       0       0       0       0
  2841 ;;      Locals:         0       0       0       0       0       0       0       0       0
  2842 ;;      Temps:         13       0       0       0       0       0       0       0       0
  2843 ;;      Totals:        13       0       0       0       0       0       0       0       0
  2844 ;;Total ram usage:       13 bytes
  2845 ;; Hardware stack levels used: 1
  2846 ;; Hardware stack levels required when called: 3
  2847 ;; This function calls:
  2848 ;;		_os_task_time_decrease
  2849 ;;		_scheduler
  2850 ;; This function is called by:
  2851 ;;		Interrupt level 2
  2852 ;; This function uses a non-reentrant model
  2853 ;;
  2854                           
  2855                           	psect	intcode
  2856   000008                     __pintcode:
  2857                           	callstack 0
  2858   000008                     _ISR_TIMER_0:
  2859                           	callstack 22
  2860                           
  2861                           ;incstack = 0
  2862   000008  821A               	bsf	int$flags,1,c	;set compiler interrupt flag (level 2)
  2863   00000A  ED01  F004         	call	int_func,f	;refresh shadow registers
  2864                           
  2865                           	psect	intcode_body
  2866   000802                     __pintcode_body:
  2867                           	callstack 22
  2868   000802                     int_func:
  2869                           	callstack 22
  2870   000802  0006               	pop		; remove dummy address from shadow register refresh
  2871   000804  CFE1 F014          	movff	fsr1l,??_ISR_TIMER_0+7
  2872   000808  CFE2 F015          	movff	fsr1h,??_ISR_TIMER_0+8
  2873   00080C  CFD9 F016          	movff	fsr2l,??_ISR_TIMER_0+9
  2874   000810  CFDA F017          	movff	fsr2h,??_ISR_TIMER_0+10
  2875   000814  CFF3 F018          	movff	prodl,??_ISR_TIMER_0+11
  2876   000818  CFF4 F019          	movff	prodh,??_ISR_TIMER_0+12
  2877   00081C                     
  2878                           ;hardware.c: 27:     (INTCONbits.GIE = 0);
  2879   00081C  9EF2               	bcf	242,7,c	;volatile
  2880                           
  2881                           ;hardware.c: 29:     if (INTCONbits.TMR0IF == 1) {
  2882   00081E  A4F2               	btfss	242,2,c	;volatile
  2883   000820  EF14  F004         	goto	i2u107_41
  2884   000824  EF16  F004         	goto	i2u107_40
  2885   000828                     i2u107_41:
  2886   000828  EF37  F005         	goto	i2l1895
  2887   00082C                     i2u107_40:
  2888   00082C                     
  2889                           ;hardware.c: 30:         INTCONbits.TMR0IF = 0;
  2890   00082C  94F2               	bcf	242,2,c	;volatile
  2891   00082E                     
  2892                           ;hardware.c: 33:         os_task_time_decrease();
  2893   00082E  EC66  F006         	call	_os_task_time_decrease	;wreg free
  2894   000832  EE22  F0DE         	lfsr	2,_readyQueue+531
  2895   000836  EE10 F003          	lfsr	1,3
  2896   00083A  50DE               	movf	postinc2,w,c
  2897   00083C  26E1               	addwf	fsr1l,f,c
  2898   00083E  50DD               	movf	postdec2,w,c
  2899   000840  22E2               	addwfc	fsr1h,f,c
  2900   000842  04E6               	decf	postinc1,w,c
  2901   000844  A4D8               	btfss	status,2,c
  2902   000846  EF27  F004         	goto	i2u108_41
  2903   00084A  EF29  F004         	goto	i2u108_40
  2904   00084E                     i2u108_41:
  2905   00084E  EF95  F004         	goto	i2l1875
  2906   000852                     i2u108_40:
  2907   000852  EE22  F0DE         	lfsr	2,_readyQueue+531
  2908   000856  EE10 F006          	lfsr	1,6
  2909   00085A  50DE               	movf	postinc2,w,c
  2910   00085C  26E1               	addwf	fsr1l,f,c
  2911   00085E  50DD               	movf	postdec2,w,c
  2912   000860  22E2               	addwfc	fsr1h,f,c
  2913   000862  CFE0 FFE7          	movff	bsr,indf1	;volatile
  2914   000866  EE22  F0DE         	lfsr	2,_readyQueue+531
  2915   00086A  EE10 F008          	lfsr	1,8
  2916   00086E  50DE               	movf	postinc2,w,c
  2917   000870  26E1               	addwf	fsr1l,f,c
  2918   000872  50DD               	movf	postdec2,w,c
  2919   000874  22E2               	addwfc	fsr1h,f,c
  2920   000876  CFD8 FFE7          	movff	status,indf1	;volatile
  2921   00087A  EE22  F0DE         	lfsr	2,_readyQueue+531
  2922   00087E  EE10 F007          	lfsr	1,7
  2923   000882  50DE               	movf	postinc2,w,c
  2924   000884  26E1               	addwf	fsr1l,f,c
  2925   000886  50DD               	movf	postdec2,w,c
  2926   000888  22E2               	addwfc	fsr1h,f,c
  2927   00088A  CFE8 FFE7          	movff	wreg,indf1	;volatile
  2928   00088E  EE22  F0DE         	lfsr	2,_readyQueue+531
  2929   000892  EE10 F069          	lfsr	1,105
  2930   000896  50DE               	movf	postinc2,w,c
  2931   000898  26E1               	addwf	fsr1l,f,c
  2932   00089A  50DD               	movf	postdec2,w,c
  2933   00089C  22E2               	addwfc	fsr1h,f,c
  2934   00089E  6AE7               	clrf	indf1,c
  2935   0008A0  EF84  F004         	goto	i2l1871
  2936   0008A4                     i2l1867:
  2937   0008A4  EE22  F0DE         	lfsr	2,_readyQueue+531
  2938   0008A8  EE10 F069          	lfsr	1,105
  2939   0008AC  50DE               	movf	postinc2,w,c
  2940   0008AE  26E1               	addwf	fsr1l,f,c
  2941   0008B0  50DD               	movf	postdec2,w,c
  2942   0008B2  22E2               	addwfc	fsr1h,f,c
  2943   0008B4  50E7               	movf	indf1,w,c
  2944   0008B6  6E0D               	movwf	??_ISR_TIMER_0^0,c
  2945   0008B8  500D               	movf	??_ISR_TIMER_0^0,w,c
  2946   0008BA  0D03               	mullw	3
  2947   0008BC  CFF3 F00E          	movff	prodl,??_ISR_TIMER_0+1
  2948   0008C0  CFF4 F00F          	movff	prodh,??_ISR_TIMER_0+2
  2949   0008C4  EE22  F0DE         	lfsr	2,_readyQueue+531
  2950   0008C8  CFDE F010          	movff	postinc2,??_ISR_TIMER_0+3
  2951   0008CC  CFDD F011          	movff	postdec2,??_ISR_TIMER_0+4
  2952   0008D0  500E               	movf	(??_ISR_TIMER_0+1)^0,w,c
  2953   0008D2  2410               	addwf	(??_ISR_TIMER_0+3)^0,w,c
  2954   0008D4  6E12               	movwf	(??_ISR_TIMER_0+5)^0,c
  2955   0008D6  500F               	movf	(??_ISR_TIMER_0+2)^0,w,c
  2956   0008D8  2011               	addwfc	(??_ISR_TIMER_0+4)^0,w,c
  2957   0008DA  6E13               	movwf	(??_ISR_TIMER_0+6)^0,c
  2958   0008DC  0E09               	movlw	9
  2959   0008DE  2412               	addwf	(??_ISR_TIMER_0+5)^0,w,c
  2960   0008E0  6ED9               	movwf	fsr2l,c
  2961   0008E2  0E00               	movlw	0
  2962   0008E4  2013               	addwfc	(??_ISR_TIMER_0+6)^0,w,c
  2963   0008E6  6EDA               	movwf	fsr2h,c
  2964   0008E8  CFFD FFDE          	movff	tosl,postinc2	;volatile
  2965   0008EC  CFFE FFDE          	movff	tosh,postinc2	;volatile
  2966   0008F0  CFFF FFDE          	movff	tosu,postinc2	;volatile
  2967   0008F4  EE22  F0DE         	lfsr	2,_readyQueue+531
  2968   0008F8  EE10 F069          	lfsr	1,105
  2969   0008FC  50DE               	movf	postinc2,w,c
  2970   0008FE  26E1               	addwf	fsr1l,f,c
  2971   000900  50DD               	movf	postdec2,w,c
  2972   000902  22E2               	addwfc	fsr1h,f,c
  2973   000904  2AE7               	incf	indf1,f,c
  2974   000906  0006               	pop		;# 
  2975   000908                     i2l1871:
  2976   000908  50FC               	movf	252,w,c	;volatile
  2977   00090A  A4D8               	btfss	status,2,c
  2978   00090C  EF8A  F004         	goto	i2u109_41
  2979   000910  EF8C  F004         	goto	i2u109_40
  2980   000914                     i2u109_41:
  2981   000914  EF52  F004         	goto	i2l1867
  2982   000918                     i2u109_40:
  2983   000918  EE22  F0DE         	lfsr	2,_readyQueue+531
  2984   00091C  EE10 F003          	lfsr	1,3
  2985   000920  50DE               	movf	postinc2,w,c
  2986   000922  26E1               	addwf	fsr1l,f,c
  2987   000924  50DD               	movf	postdec2,w,c
  2988   000926  22E2               	addwfc	fsr1h,f,c
  2989   000928  6AE7               	clrf	indf1,c
  2990   00092A                     i2l1875:
  2991                           
  2992                           ;hardware.c: 36:         scheduler();
  2993   00092A  ECCB  F007         	call	_scheduler	;wreg free
  2994   00092E  EE22  F0DE         	lfsr	2,_readyQueue+531
  2995   000932  EE10 F003          	lfsr	1,3
  2996   000936  50DE               	movf	postinc2,w,c
  2997   000938  26E1               	addwf	fsr1l,f,c
  2998   00093A  50DD               	movf	postdec2,w,c
  2999   00093C  22E2               	addwfc	fsr1h,f,c
  3000   00093E  50E7               	movf	indf1,w,c
  3001   000940  A4D8               	btfss	status,2,c
  3002   000942  EFA5  F004         	goto	i2u110_41
  3003   000946  EFA7  F004         	goto	i2u110_40
  3004   00094A                     i2u110_41:
  3005   00094A  EF37  F005         	goto	i2l1895
  3006   00094E                     i2u110_40:
  3007   00094E  EE22  F0DE         	lfsr	2,_readyQueue+531
  3008   000952  EE10 F006          	lfsr	1,6
  3009   000956  50DE               	movf	postinc2,w,c
  3010   000958  26E1               	addwf	fsr1l,f,c
  3011   00095A  50DD               	movf	postdec2,w,c
  3012   00095C  22E2               	addwfc	fsr1h,f,c
  3013   00095E  50E7               	movf	indf1,w,c
  3014   000960  6EE0               	movwf	224,c	;volatile
  3015   000962  EE22  F0DE         	lfsr	2,_readyQueue+531
  3016   000966  EE10 F008          	lfsr	1,8
  3017   00096A  50DE               	movf	postinc2,w,c
  3018   00096C  26E1               	addwf	fsr1l,f,c
  3019   00096E  50DD               	movf	postdec2,w,c
  3020   000970  22E2               	addwfc	fsr1h,f,c
  3021   000972  50E7               	movf	indf1,w,c
  3022   000974  6ED8               	movwf	216,c	;volatile
  3023   000976  EE22  F0DE         	lfsr	2,_readyQueue+531
  3024   00097A  EE10 F007          	lfsr	1,7
  3025   00097E  50DE               	movf	postinc2,w,c
  3026   000980  26E1               	addwf	fsr1l,f,c
  3027   000982  50DD               	movf	postdec2,w,c
  3028   000984  22E2               	addwfc	fsr1h,f,c
  3029   000986  50E7               	movf	indf1,w,c
  3030   000988  6E0D               	movwf	??_ISR_TIMER_0^0,c
  3031   00098A  500D               	movf	??_ISR_TIMER_0^0,w,c
  3032   00098C  6AFC               	clrf	252,c	;volatile
  3033   00098E  EE22  F0DE         	lfsr	2,_readyQueue+531
  3034   000992  EE10 F069          	lfsr	1,105
  3035   000996  50DE               	movf	postinc2,w,c
  3036   000998  26E1               	addwf	fsr1l,f,c
  3037   00099A  50DD               	movf	postdec2,w,c
  3038   00099C  22E2               	addwfc	fsr1h,f,c
  3039   00099E  50E7               	movf	indf1,w,c
  3040   0009A0  A4D8               	btfss	status,2,c
  3041   0009A2  EFD5  F004         	goto	i2u111_41
  3042   0009A6  EFD7  F004         	goto	i2u111_40
  3043   0009AA                     i2u111_41:
  3044   0009AA  EFEB  F004         	goto	i2l227
  3045   0009AE                     i2u111_40:
  3046   0009AE  0005               	push		;# 
  3047   0009B0  EE22  F0DE         	lfsr	2,_readyQueue+531
  3048   0009B4  EE10 F001          	lfsr	1,1
  3049   0009B8  50DE               	movf	postinc2,w,c
  3050   0009BA  26E1               	addwf	fsr1l,f,c
  3051   0009BC  50DD               	movf	postdec2,w,c
  3052   0009BE  22E2               	addwfc	fsr1h,f,c
  3053   0009C0  CFE6 F00D          	movff	postinc1,??_ISR_TIMER_0
  3054   0009C4  CFE5 F00E          	movff	postdec1,??_ISR_TIMER_0+1
  3055   0009C8  C00D  FFFD         	movff	??_ISR_TIMER_0,tosl	;volatile
  3056   0009CC  C00E  FFFE         	movff	??_ISR_TIMER_0+1,tosh	;volatile
  3057   0009D0  6AFF               	clrf	255,c	;volatile
  3058   0009D2  EF2D  F005         	goto	i2l1893
  3059   0009D6                     i2l227:
  3060   0009D6  0005               	push		;# 
  3061   0009D8  EE22  F0DE         	lfsr	2,_readyQueue+531
  3062   0009DC  EE10 F069          	lfsr	1,105
  3063   0009E0  50DE               	movf	postinc2,w,c
  3064   0009E2  26E1               	addwf	fsr1l,f,c
  3065   0009E4  50DD               	movf	postdec2,w,c
  3066   0009E6  22E2               	addwfc	fsr1h,f,c
  3067   0009E8  06E7               	decf	indf1,f,c
  3068   0009EA  EE22  F0DE         	lfsr	2,_readyQueue+531
  3069   0009EE  EE10 F069          	lfsr	1,105
  3070   0009F2  50DE               	movf	postinc2,w,c
  3071   0009F4  26E1               	addwf	fsr1l,f,c
  3072   0009F6  50DD               	movf	postdec2,w,c
  3073   0009F8  22E2               	addwfc	fsr1h,f,c
  3074   0009FA  50E7               	movf	indf1,w,c
  3075   0009FC  6E0D               	movwf	??_ISR_TIMER_0^0,c
  3076   0009FE  500D               	movf	??_ISR_TIMER_0^0,w,c
  3077   000A00  0D03               	mullw	3
  3078   000A02  CFF3 F00E          	movff	prodl,??_ISR_TIMER_0+1
  3079   000A06  CFF4 F00F          	movff	prodh,??_ISR_TIMER_0+2
  3080   000A0A  EE22  F0DE         	lfsr	2,_readyQueue+531
  3081   000A0E  CFDE F010          	movff	postinc2,??_ISR_TIMER_0+3
  3082   000A12  CFDD F011          	movff	postdec2,??_ISR_TIMER_0+4
  3083   000A16  500E               	movf	(??_ISR_TIMER_0+1)^0,w,c
  3084   000A18  2410               	addwf	(??_ISR_TIMER_0+3)^0,w,c
  3085   000A1A  6E12               	movwf	(??_ISR_TIMER_0+5)^0,c
  3086   000A1C  500F               	movf	(??_ISR_TIMER_0+2)^0,w,c
  3087   000A1E  2011               	addwfc	(??_ISR_TIMER_0+4)^0,w,c
  3088   000A20  6E13               	movwf	(??_ISR_TIMER_0+6)^0,c
  3089   000A22  0E09               	movlw	9
  3090   000A24  2412               	addwf	(??_ISR_TIMER_0+5)^0,w,c
  3091   000A26  6ED9               	movwf	fsr2l,c
  3092   000A28  0E00               	movlw	0
  3093   000A2A  2013               	addwfc	(??_ISR_TIMER_0+6)^0,w,c
  3094   000A2C  6EDA               	movwf	fsr2h,c
  3095   000A2E  CFDE FFFD          	movff	postinc2,tosl	;volatile
  3096   000A32  CFDE FFFE          	movff	postinc2,tosh	;volatile
  3097   000A36  CFDD FFFF          	movff	postdec2,tosu	;volatile
  3098   000A3A  EE22  F0DE         	lfsr	2,_readyQueue+531
  3099   000A3E  EE10 F069          	lfsr	1,105
  3100   000A42  50DE               	movf	postinc2,w,c
  3101   000A44  26E1               	addwf	fsr1l,f,c
  3102   000A46  50DD               	movf	postdec2,w,c
  3103   000A48  22E2               	addwfc	fsr1h,f,c
  3104   000A4A  50E7               	movf	indf1,w,c
  3105   000A4C  A4D8               	btfss	status,2,c
  3106   000A4E  EF2B  F005         	goto	i2u112_41
  3107   000A52  EF2D  F005         	goto	i2u112_40
  3108   000A56                     i2u112_41:
  3109   000A56  EFEB  F004         	goto	i2l227
  3110   000A5A                     i2u112_40:
  3111   000A5A                     i2l1893:
  3112   000A5A  EE22  F0DE         	lfsr	2,_readyQueue+531
  3113   000A5E  EE10 F003          	lfsr	1,3
  3114   000A62  50DE               	movf	postinc2,w,c
  3115   000A64  26E1               	addwf	fsr1l,f,c
  3116   000A66  50DD               	movf	postdec2,w,c
  3117   000A68  22E2               	addwfc	fsr1h,f,c
  3118   000A6A  0E01               	movlw	1
  3119   000A6C  6EE7               	movwf	indf1,c
  3120   000A6E                     i2l1895:
  3121                           
  3122                           ;hardware.c: 40:     (INTCONbits.GIE = 1);
  3123   000A6E  8EF2               	bsf	242,7,c	;volatile
  3124   000A70  C019  FFF4         	movff	??_ISR_TIMER_0+12,prodh
  3125   000A74  C018  FFF3         	movff	??_ISR_TIMER_0+11,prodl
  3126   000A78  C017  FFDA         	movff	??_ISR_TIMER_0+10,fsr2h
  3127   000A7C  C016  FFD9         	movff	??_ISR_TIMER_0+9,fsr2l
  3128   000A80  C015  FFE2         	movff	??_ISR_TIMER_0+8,fsr1h
  3129   000A84  C014  FFE1         	movff	??_ISR_TIMER_0+7,fsr1l
  3130   000A88  921A               	bcf	int$flags,1,c	;clear compiler interrupt flag (level 2)
  3131   000A8A  0011               	retfie		f
  3132   000A8C                     __end_of_ISR_TIMER_0:
  3133                           	callstack 0
  3134                           
  3135 ;; *************** function _scheduler *****************
  3136 ;; Defined at:
  3137 ;;		line 37 in file "scheduler.c"
  3138 ;; Parameters:    Size  Location     Type
  3139 ;;		None
  3140 ;; Auto vars:     Size  Location     Type
  3141 ;;		None
  3142 ;; Return value:  Size  Location     Type
  3143 ;;                  1    wreg      void 
  3144 ;; Registers used:
  3145 ;;		wreg, fsr1l, fsr1h, fsr2l, fsr2h, status,2, status,0, prodl, prodh, cstack
  3146 ;; Tracked objects:
  3147 ;;		On entry : 0/0
  3148 ;;		On exit  : 0/0
  3149 ;;		Unchanged: 0/0
  3150 ;; Data sizes:     COMRAM   BANK0   BANK1   BANK2   BANK3   BANK4   BANK5   BANK6   BANK7
  3151 ;;      Params:         0       0       0       0       0       0       0       0       0
  3152 ;;      Locals:         0       0       0       0       0       0       0       0       0
  3153 ;;      Temps:          0       0       0       0       0       0       0       0       0
  3154 ;;      Totals:         0       0       0       0       0       0       0       0       0
  3155 ;;Total ram usage:        0 bytes
  3156 ;; Hardware stack levels used: 1
  3157 ;; Hardware stack levels required when called: 2
  3158 ;; This function calls:
  3159 ;;		_rr_scheduler
  3160 ;; This function is called by:
  3161 ;;		_ISR_TIMER_0
  3162 ;;		_os_delay
  3163 ;;		_os_yield
  3164 ;;		_os_change_state
  3165 ;;		_sem_wait
  3166 ;; This function uses a non-reentrant model
  3167 ;;
  3168                           
  3169                           	psect	text16
  3170   000F96                     __ptext16:
  3171                           	callstack 0
  3172   000F96                     _scheduler:
  3173                           	callstack 22
  3174   000F96                     
  3175                           ;scheduler.c: 40:     readyQueue.taskRunning = rr_scheduler();
  3176   000F96  EC46  F005         	call	_rr_scheduler	;wreg free
  3177   000F9A  C007  F2DE         	movff	?_rr_scheduler,_readyQueue+531
  3178   000F9E  C008  F2DF         	movff	?_rr_scheduler+1,_readyQueue+532
  3179   000FA2  0012               	return		;funcret
  3180   000FA4                     __end_of_scheduler:
  3181                           	callstack 0
  3182                           
  3183 ;; *************** function _rr_scheduler *****************
  3184 ;; Defined at:
  3185 ;;		line 12 in file "scheduler.c"
  3186 ;; Parameters:    Size  Location     Type
  3187 ;;		None
  3188 ;; Auto vars:     Size  Location     Type
  3189 ;;  pos_task_run    1   11[COMRAM] unsigned char 
  3190 ;;  idle_selecte    1   10[COMRAM] unsigned char 
  3191 ;; Return value:  Size  Location     Type
  3192 ;;                  2    6[COMRAM] PTR struct tcb
  3193 ;; Registers used:
  3194 ;;		wreg, fsr1l, fsr1h, fsr2l, fsr2h, status,2, status,0, prodl, prodh, cstack
  3195 ;; Tracked objects:
  3196 ;;		On entry : 0/0
  3197 ;;		On exit  : 0/0
  3198 ;;		Unchanged: 0/0
  3199 ;; Data sizes:     COMRAM   BANK0   BANK1   BANK2   BANK3   BANK4   BANK5   BANK6   BANK7
  3200 ;;      Params:         2       0       0       0       0       0       0       0       0
  3201 ;;      Locals:         2       0       0       0       0       0       0       0       0
  3202 ;;      Temps:          2       0       0       0       0       0       0       0       0
  3203 ;;      Totals:         6       0       0       0       0       0       0       0       0
  3204 ;;Total ram usage:        6 bytes
  3205 ;; Hardware stack levels used: 1
  3206 ;; Hardware stack levels required when called: 1
  3207 ;; This function calls:
  3208 ;;		___awmod
  3209 ;;		_os_task_pos
  3210 ;; This function is called by:
  3211 ;;		_scheduler
  3212 ;; This function uses a non-reentrant model
  3213 ;;
  3214                           
  3215                           	psect	text17
  3216   000A8C                     __ptext17:
  3217                           	callstack 0
  3218   000A8C                     _rr_scheduler:
  3219                           	callstack 22
  3220   000A8C                     
  3221                           ;scheduler.c: 14:     uint8_t pos_task_running = os_task_pos(readyQueue.taskRunning->tas
      +                          k_func);
  3222   000A8C  EE22  F0DE         	lfsr	2,_readyQueue+531
  3223   000A90  EE10 F001          	lfsr	1,1
  3224   000A94  50DE               	movf	postinc2,w,c
  3225   000A96  26E1               	addwf	fsr1l,f,c
  3226   000A98  50DD               	movf	postdec2,w,c
  3227   000A9A  22E2               	addwfc	fsr1h,f,c
  3228   000A9C  CFE6 F001          	movff	postinc1,os_task_pos@task
  3229   000AA0  CFE5 F002          	movff	postdec1,os_task_pos@task+1
  3230   000AA4  ECDC  F006         	call	_os_task_pos	;wreg free
  3231   000AA8  6E0C               	movwf	rr_scheduler@pos_task_running^0,c
  3232   000AAA                     
  3233                           ;scheduler.c: 15:     uint8_t idle_selected = 0;
  3234   000AAA  6A0B               	clrf	rr_scheduler@idle_selected^0,c
  3235   000AAC                     i2l1635:
  3236                           
  3237                           ;scheduler.c: 18:         pos_task_running = (pos_task_running+1) % readyQueue.readyQueu
      +                          eSize;
  3238   000AAC  0E01               	movlw	1
  3239   000AAE  240C               	addwf	rr_scheduler@pos_task_running^0,w,c
  3240   000AB0  6E01               	movwf	___awmod@dividend^0,c
  3241   000AB2  6A02               	clrf	(___awmod@dividend+1)^0,c
  3242   000AB4  0E00               	movlw	0
  3243   000AB6  2202               	addwfc	(___awmod@dividend+1)^0,f,c
  3244   000AB8  C2DD  F009         	movff	_readyQueue+530,??_rr_scheduler
  3245   000ABC  5009               	movf	??_rr_scheduler^0,w,c
  3246   000ABE  6E03               	movwf	___awmod@divisor^0,c
  3247   000AC0  6A04               	clrf	(___awmod@divisor+1)^0,c
  3248   000AC2  EC0F  F006         	call	___awmod	;wreg free
  3249   000AC6  5001               	movf	?___awmod^0,w,c
  3250   000AC8  6E0C               	movwf	rr_scheduler@pos_task_running^0,c
  3251   000ACA                     
  3252                           ;scheduler.c: 19:         if (readyQueue.readyQueue[pos_task_running].task_func == os_id
      +                          le_task) {
  3253   000ACA  500C               	movf	rr_scheduler@pos_task_running^0,w,c
  3254   000ACC  0D6A               	mullw	106
  3255   000ACE  0ECC               	movlw	low (_readyQueue+1)
  3256   000AD0  24F3               	addwf	243,w,c
  3257   000AD2  6ED9               	movwf	fsr2l,c
  3258   000AD4  0E00               	movlw	high (_readyQueue+1)
  3259   000AD6  20F4               	addwfc	prodh,w,c
  3260   000AD8  6EDA               	movwf	fsr2h,c
  3261   000ADA  0E56               	movlw	low _os_idle_task
  3262   000ADC  18DE               	xorwf	postinc2,w,c
  3263   000ADE  E107               	bnz	i2u74_41
  3264   000AE0  0E0E               	movlw	high _os_idle_task
  3265   000AE2  18DE               	xorwf	postinc2,w,c
  3266   000AE4  A4D8               	btfss	status,2,c
  3267   000AE6  EF77  F005         	goto	i2u74_41
  3268   000AEA  EF79  F005         	goto	i2u74_40
  3269   000AEE                     i2u74_41:
  3270   000AEE  EF88  F005         	goto	i2l1647
  3271   000AF2                     i2u74_40:
  3272   000AF2                     
  3273                           ;scheduler.c: 20:             idle_selected++;
  3274   000AF2  2A0B               	incf	rr_scheduler@idle_selected^0,f,c
  3275   000AF4                     
  3276                           ;scheduler.c: 21:             if (idle_selected > 1) return &readyQueue.readyQueue[0];
  3277   000AF4  0E01               	movlw	1
  3278   000AF6  640B               	cpfsgt	rr_scheduler@idle_selected^0,c
  3279   000AF8  EF80  F005         	goto	i2u75_41
  3280   000AFC  EF82  F005         	goto	i2u75_40
  3281   000B00                     i2u75_41:
  3282   000B00  EF88  F005         	goto	i2l1647
  3283   000B04                     i2u75_40:
  3284   000B04  0ECB               	movlw	low _readyQueue
  3285   000B06  6E07               	movwf	?_rr_scheduler^0,c
  3286   000B08  0E00               	movlw	high _readyQueue
  3287   000B0A  6E08               	movwf	(?_rr_scheduler+1)^0,c
  3288   000B0C  EFB4  F005         	goto	i2l176
  3289   000B10                     i2l1647:
  3290                           
  3291                           ;scheduler.c: 24:     } while (readyQueue.readyQueue[pos_task_running].task_state != REA
      +                          DY ||
  3292   000B10  500C               	movf	rr_scheduler@pos_task_running^0,w,c
  3293   000B12  0D6A               	mullw	106
  3294   000B14  0ECE               	movlw	low (_readyQueue+3)
  3295   000B16  24F3               	addwf	243,w,c
  3296   000B18  6ED9               	movwf	fsr2l,c
  3297   000B1A  0E00               	movlw	high (_readyQueue+3)
  3298   000B1C  20F4               	addwfc	prodh,w,c
  3299   000B1E  6EDA               	movwf	fsr2h,c
  3300   000B20  50DF               	movf	indf2,w,c
  3301   000B22  A4D8               	btfss	status,2,c
  3302   000B24  EF96  F005         	goto	i2u76_41
  3303   000B28  EF98  F005         	goto	i2u76_40
  3304   000B2C                     i2u76_41:
  3305   000B2C  EF56  F005         	goto	i2l1635
  3306   000B30                     i2u76_40:
  3307   000B30  500C               	movf	rr_scheduler@pos_task_running^0,w,c
  3308   000B32  0D6A               	mullw	106
  3309   000B34  0ECC               	movlw	low (_readyQueue+1)
  3310   000B36  24F3               	addwf	243,w,c
  3311   000B38  6ED9               	movwf	fsr2l,c
  3312   000B3A  0E00               	movlw	high (_readyQueue+1)
  3313   000B3C  20F4               	addwfc	prodh,w,c
  3314   000B3E  6EDA               	movwf	fsr2h,c
  3315   000B40  0E56               	movlw	low _os_idle_task
  3316   000B42  18DE               	xorwf	postinc2,w,c
  3317   000B44  E109               	bnz	i2u77_40
  3318   000B46  0E0E               	movlw	high _os_idle_task
  3319   000B48  18DE               	xorwf	postinc2,w,c
  3320   000B4A  B4D8               	btfsc	status,2,c
  3321   000B4C  EFAA  F005         	goto	i2u77_41
  3322   000B50  EFAC  F005         	goto	i2u77_40
  3323   000B54                     i2u77_41:
  3324   000B54  EF56  F005         	goto	i2l1635
  3325   000B58                     i2u77_40:
  3326   000B58                     
  3327                           ;scheduler.c: 27:     return &readyQueue.readyQueue[pos_task_running];
  3328   000B58  500C               	movf	rr_scheduler@pos_task_running^0,w,c
  3329   000B5A  0D6A               	mullw	106
  3330   000B5C  0ECB               	movlw	low _readyQueue
  3331   000B5E  24F3               	addwf	243,w,c
  3332   000B60  6E07               	movwf	?_rr_scheduler^0,c
  3333   000B62  0E00               	movlw	high _readyQueue
  3334   000B64  20F4               	addwfc	prodh,w,c
  3335   000B66  6E08               	movwf	(?_rr_scheduler+1)^0,c
  3336   000B68                     i2l176:
  3337   000B68  0012               	return		;funcret
  3338   000B6A                     __end_of_rr_scheduler:
  3339                           	callstack 0
  3340                           
  3341 ;; *************** function _os_task_pos *****************
  3342 ;; Defined at:
  3343 ;;		line 53 in file "kernel.c"
  3344 ;; Parameters:    Size  Location     Type
  3345 ;;  task            2    0[COMRAM] PTR FTN()void 
  3346 ;;		 -> os_idle_task(1), tarefa_1(1), 
  3347 ;; Auto vars:     Size  Location     Type
  3348 ;;  i               1    4[COMRAM] unsigned char 
  3349 ;; Return value:  Size  Location     Type
  3350 ;;                  1    wreg      unsigned char 
  3351 ;; Registers used:
  3352 ;;		wreg, fsr2l, fsr2h, status,2, status,0, prodl, prodh
  3353 ;; Tracked objects:
  3354 ;;		On entry : 0/0
  3355 ;;		On exit  : 0/0
  3356 ;;		Unchanged: 0/0
  3357 ;; Data sizes:     COMRAM   BANK0   BANK1   BANK2   BANK3   BANK4   BANK5   BANK6   BANK7
  3358 ;;      Params:         2       0       0       0       0       0       0       0       0
  3359 ;;      Locals:         1       0       0       0       0       0       0       0       0
  3360 ;;      Temps:          2       0       0       0       0       0       0       0       0
  3361 ;;      Totals:         5       0       0       0       0       0       0       0       0
  3362 ;;Total ram usage:        5 bytes
  3363 ;; Hardware stack levels used: 1
  3364 ;; This function calls:
  3365 ;;		Nothing
  3366 ;; This function is called by:
  3367 ;;		_rr_scheduler
  3368 ;; This function uses a non-reentrant model
  3369 ;;
  3370                           
  3371                           	psect	text18
  3372   000DB8                     __ptext18:
  3373                           	callstack 0
  3374   000DB8                     _os_task_pos:
  3375                           	callstack 22
  3376   000DB8                     
  3377                           ;kernel.c: 53: uint8_t os_task_pos(f_ptr task);kernel.c: 54: {;kernel.c: 55:     for (ui
      +                          nt8_t i = 0; i < readyQueue.readyQueueSize; i++) {
  3378   000DB8  6A05               	clrf	os_task_pos@i^0,c
  3379   000DBA  EFF7  F006         	goto	i2l1561
  3380   000DBE                     i2l1553:
  3381                           
  3382                           ;kernel.c: 56:         if (readyQueue.readyQueue[i].task_func == task) return i;
  3383   000DBE  5005               	movf	os_task_pos@i^0,w,c
  3384   000DC0  0D6A               	mullw	106
  3385   000DC2  0ECC               	movlw	low (_readyQueue+1)
  3386   000DC4  24F3               	addwf	243,w,c
  3387   000DC6  6ED9               	movwf	fsr2l,c
  3388   000DC8  0E00               	movlw	high (_readyQueue+1)
  3389   000DCA  20F4               	addwfc	prodh,w,c
  3390   000DCC  6EDA               	movwf	fsr2h,c
  3391   000DCE  5001               	movf	os_task_pos@task^0,w,c
  3392   000DD0  18DE               	xorwf	postinc2,w,c
  3393   000DD2  E107               	bnz	i2u65_41
  3394   000DD4  5002               	movf	(os_task_pos@task+1)^0,w,c
  3395   000DD6  18DE               	xorwf	postinc2,w,c
  3396   000DD8  A4D8               	btfss	status,2,c
  3397   000DDA  EFF1  F006         	goto	i2u65_41
  3398   000DDE  EFF3  F006         	goto	i2u65_40
  3399   000DE2                     i2u65_41:
  3400   000DE2  EFF6  F006         	goto	i2l1559
  3401   000DE6                     i2u65_40:
  3402   000DE6  5005               	movf	os_task_pos@i^0,w,c
  3403   000DE8  EF03  F007         	goto	i2l56
  3404   000DEC                     i2l1559:
  3405                           
  3406                           ;kernel.c: 57:     }
  3407   000DEC  2A05               	incf	os_task_pos@i^0,f,c
  3408   000DEE                     i2l1561:
  3409   000DEE  EE22  F0DD         	lfsr	2,_readyQueue+530
  3410   000DF2  50DE               	movf	postinc2,w,c
  3411   000DF4  5C05               	subwf	os_task_pos@i^0,w,c
  3412   000DF6  A0D8               	btfss	status,0,c
  3413   000DF8  EF00  F007         	goto	i2u66_41
  3414   000DFC  EF02  F007         	goto	i2u66_40
  3415   000E00                     i2u66_41:
  3416   000E00  EFDF  F006         	goto	i2l1553
  3417   000E04                     i2u66_40:
  3418   000E04                     
  3419                           ;kernel.c: 59:     return 0;
  3420   000E04  0E00               	movlw	0
  3421   000E06                     i2l56:
  3422   000E06  0012               	return		;funcret
  3423   000E08                     __end_of_os_task_pos:
  3424                           	callstack 0
  3425                           
  3426 ;; *************** function ___awmod *****************
  3427 ;; Defined at:
  3428 ;;		line 7 in file "C:\Program Files\Microchip\xc8\v3.00\pic\sources\c99\common\awmod.c"
  3429 ;; Parameters:    Size  Location     Type
  3430 ;;  dividend        2    0[COMRAM] int 
  3431 ;;  divisor         2    2[COMRAM] int 
  3432 ;; Auto vars:     Size  Location     Type
  3433 ;;  sign            1    5[COMRAM] unsigned char 
  3434 ;;  counter         1    4[COMRAM] unsigned char 
  3435 ;; Return value:  Size  Location     Type
  3436 ;;                  2    0[COMRAM] int 
  3437 ;; Registers used:
  3438 ;;		wreg, status,2, status,0
  3439 ;; Tracked objects:
  3440 ;;		On entry : 0/0
  3441 ;;		On exit  : 0/0
  3442 ;;		Unchanged: 0/0
  3443 ;; Data sizes:     COMRAM   BANK0   BANK1   BANK2   BANK3   BANK4   BANK5   BANK6   BANK7
  3444 ;;      Params:         4       0       0       0       0       0       0       0       0
  3445 ;;      Locals:         2       0       0       0       0       0       0       0       0
  3446 ;;      Temps:          0       0       0       0       0       0       0       0       0
  3447 ;;      Totals:         6       0       0       0       0       0       0       0       0
  3448 ;;Total ram usage:        6 bytes
  3449 ;; Hardware stack levels used: 1
  3450 ;; This function calls:
  3451 ;;		Nothing
  3452 ;; This function is called by:
  3453 ;;		_rr_scheduler
  3454 ;;		_sem_wait
  3455 ;;		_sem_post
  3456 ;;		_read_pipe
  3457 ;;		_write_pipe
  3458 ;; This function uses a non-reentrant model
  3459 ;;
  3460                           
  3461                           	psect	text19
  3462   000C1E                     __ptext19:
  3463                           	callstack 0
  3464   000C1E                     ___awmod:
  3465                           	callstack 22
  3466   000C1E  6A06               	clrf	___awmod@sign^0,c
  3467   000C20  BE02               	btfsc	(___awmod@dividend+1)^0,7,c
  3468   000C22  EF17  F006         	goto	i2u67_40
  3469   000C26  EF15  F006         	goto	i2u67_41
  3470   000C2A                     i2u67_41:
  3471   000C2A  EF1D  F006         	goto	i2l1577
  3472   000C2E                     i2u67_40:
  3473   000C2E  6C01               	negf	___awmod@dividend^0,c
  3474   000C30  1E02               	comf	(___awmod@dividend+1)^0,f,c
  3475   000C32  B0D8               	btfsc	status,0,c
  3476   000C34  2A02               	incf	(___awmod@dividend+1)^0,f,c
  3477   000C36  0E01               	movlw	1
  3478   000C38  6E06               	movwf	___awmod@sign^0,c
  3479   000C3A                     i2l1577:
  3480   000C3A  BE04               	btfsc	(___awmod@divisor+1)^0,7,c
  3481   000C3C  EF24  F006         	goto	i2u68_40
  3482   000C40  EF22  F006         	goto	i2u68_41
  3483   000C44                     i2u68_41:
  3484   000C44  EF28  F006         	goto	i2l1581
  3485   000C48                     i2u68_40:
  3486   000C48  6C03               	negf	___awmod@divisor^0,c
  3487   000C4A  1E04               	comf	(___awmod@divisor+1)^0,f,c
  3488   000C4C  B0D8               	btfsc	status,0,c
  3489   000C4E  2A04               	incf	(___awmod@divisor+1)^0,f,c
  3490   000C50                     i2l1581:
  3491   000C50  5003               	movf	___awmod@divisor^0,w,c
  3492   000C52  1004               	iorwf	(___awmod@divisor+1)^0,w,c
  3493   000C54  B4D8               	btfsc	status,2,c
  3494   000C56  EF2F  F006         	goto	i2u69_41
  3495   000C5A  EF31  F006         	goto	i2u69_40
  3496   000C5E                     i2u69_41:
  3497   000C5E  EF55  F006         	goto	i2l1597
  3498   000C62                     i2u69_40:
  3499   000C62  0E01               	movlw	1
  3500   000C64  6E05               	movwf	___awmod@counter^0,c
  3501   000C66  EF39  F006         	goto	i2l1587
  3502   000C6A                     i2l1585:
  3503   000C6A  90D8               	bcf	status,0,c
  3504   000C6C  3603               	rlcf	___awmod@divisor^0,f,c
  3505   000C6E  3604               	rlcf	(___awmod@divisor+1)^0,f,c
  3506   000C70  2A05               	incf	___awmod@counter^0,f,c
  3507   000C72                     i2l1587:
  3508   000C72  AE04               	btfss	(___awmod@divisor+1)^0,7,c
  3509   000C74  EF3E  F006         	goto	i2u70_41
  3510   000C78  EF40  F006         	goto	i2u70_40
  3511   000C7C                     i2u70_41:
  3512   000C7C  EF35  F006         	goto	i2l1585
  3513   000C80                     i2u70_40:
  3514   000C80                     i2l1589:
  3515   000C80  5003               	movf	___awmod@divisor^0,w,c
  3516   000C82  5C01               	subwf	___awmod@dividend^0,w,c
  3517   000C84  5004               	movf	(___awmod@divisor+1)^0,w,c
  3518   000C86  5802               	subwfb	(___awmod@dividend+1)^0,w,c
  3519   000C88  A0D8               	btfss	status,0,c
  3520   000C8A  EF49  F006         	goto	i2u71_41
  3521   000C8E  EF4B  F006         	goto	i2u71_40
  3522   000C92                     i2u71_41:
  3523   000C92  EF4F  F006         	goto	i2l1593
  3524   000C96                     i2u71_40:
  3525   000C96  5003               	movf	___awmod@divisor^0,w,c
  3526   000C98  5E01               	subwf	___awmod@dividend^0,f,c
  3527   000C9A  5004               	movf	(___awmod@divisor+1)^0,w,c
  3528   000C9C  5A02               	subwfb	(___awmod@dividend+1)^0,f,c
  3529   000C9E                     i2l1593:
  3530   000C9E  90D8               	bcf	status,0,c
  3531   000CA0  3204               	rrcf	(___awmod@divisor+1)^0,f,c
  3532   000CA2  3203               	rrcf	___awmod@divisor^0,f,c
  3533   000CA4  2E05               	decfsz	___awmod@counter^0,f,c
  3534   000CA6  EF40  F006         	goto	i2l1589
  3535   000CAA                     i2l1597:
  3536   000CAA  5006               	movf	___awmod@sign^0,w,c
  3537   000CAC  B4D8               	btfsc	status,2,c
  3538   000CAE  EF5B  F006         	goto	i2u72_41
  3539   000CB2  EF5D  F006         	goto	i2u72_40
  3540   000CB6                     i2u72_41:
  3541   000CB6  EF61  F006         	goto	i2l1601
  3542   000CBA                     i2u72_40:
  3543   000CBA  6C01               	negf	___awmod@dividend^0,c
  3544   000CBC  1E02               	comf	(___awmod@dividend+1)^0,f,c
  3545   000CBE  B0D8               	btfsc	status,0,c
  3546   000CC0  2A02               	incf	(___awmod@dividend+1)^0,f,c
  3547   000CC2                     i2l1601:
  3548   000CC2  C001  F001         	movff	___awmod@dividend,?___awmod
  3549   000CC6  C002  F002         	movff	___awmod@dividend+1,?___awmod+1
  3550   000CCA  0012               	return		;funcret
  3551   000CCC                     __end_of___awmod:
  3552                           	callstack 0
  3553                           
  3554 ;; *************** function _os_task_time_decrease *****************
  3555 ;; Defined at:
  3556 ;;		line 62 in file "kernel.c"
  3557 ;; Parameters:    Size  Location     Type
  3558 ;;		None
  3559 ;; Auto vars:     Size  Location     Type
  3560 ;;  i               1    1[COMRAM] unsigned char 
  3561 ;; Return value:  Size  Location     Type
  3562 ;;                  1    wreg      void 
  3563 ;; Registers used:
  3564 ;;		wreg, fsr2l, fsr2h, status,2, status,0, prodl, prodh
  3565 ;; Tracked objects:
  3566 ;;		On entry : 0/0
  3567 ;;		On exit  : 0/0
  3568 ;;		Unchanged: 0/0
  3569 ;; Data sizes:     COMRAM   BANK0   BANK1   BANK2   BANK3   BANK4   BANK5   BANK6   BANK7
  3570 ;;      Params:         0       0       0       0       0       0       0       0       0
  3571 ;;      Locals:         1       0       0       0       0       0       0       0       0
  3572 ;;      Temps:          1       0       0       0       0       0       0       0       0
  3573 ;;      Totals:         2       0       0       0       0       0       0       0       0
  3574 ;;Total ram usage:        2 bytes
  3575 ;; Hardware stack levels used: 1
  3576 ;; This function calls:
  3577 ;;		Nothing
  3578 ;; This function is called by:
  3579 ;;		_ISR_TIMER_0
  3580 ;; This function uses a non-reentrant model
  3581 ;;
  3582                           
  3583                           	psect	text20
  3584   000CCC                     __ptext20:
  3585                           	callstack 0
  3586   000CCC                     _os_task_time_decrease:
  3587                           	callstack 24
  3588   000CCC                     
  3589                           ;kernel.c: 64:     for (uint8_t i = 1; i < readyQueue.readyQueueSize; i++) {
  3590   000CCC  0E01               	movlw	1
  3591   000CCE  6E02               	movwf	os_task_time_decrease@i^0,c
  3592   000CD0  EF9E  F006         	goto	i2l1191
  3593   000CD4                     i2l1183:
  3594                           
  3595                           ;kernel.c: 65:         if (readyQueue.readyQueue[i].task_state == WAITING) {
  3596   000CD4  5002               	movf	os_task_time_decrease@i^0,w,c
  3597   000CD6  0D6A               	mullw	106
  3598   000CD8  0ECE               	movlw	low (_readyQueue+3)
  3599   000CDA  24F3               	addwf	243,w,c
  3600   000CDC  6ED9               	movwf	fsr2l,c
  3601   000CDE  0E00               	movlw	high (_readyQueue+3)
  3602   000CE0  20F4               	addwfc	prodh,w,c
  3603   000CE2  6EDA               	movwf	fsr2h,c
  3604   000CE4  0E02               	movlw	2
  3605   000CE6  18DE               	xorwf	postinc2,w,c
  3606   000CE8  A4D8               	btfss	status,2,c
  3607   000CEA  EF79  F006         	goto	i2u15_41
  3608   000CEE  EF7B  F006         	goto	i2u15_40
  3609   000CF2                     i2u15_41:
  3610   000CF2  EF9D  F006         	goto	i2l1189
  3611   000CF6                     i2u15_40:
  3612   000CF6                     
  3613                           ;kernel.c: 66:             readyQueue.readyQueue[i].task_time_to_waiting--;
  3614   000CF6  5002               	movf	os_task_time_decrease@i^0,w,c
  3615   000CF8  0D6A               	mullw	106
  3616   000CFA  0ED0               	movlw	low (_readyQueue+5)
  3617   000CFC  24F3               	addwf	243,w,c
  3618   000CFE  6ED9               	movwf	fsr2l,c
  3619   000D00  0E00               	movlw	high (_readyQueue+5)
  3620   000D02  20F4               	addwfc	prodh,w,c
  3621   000D04  6EDA               	movwf	fsr2h,c
  3622   000D06  06DF               	decf	indf2,f,c
  3623                           
  3624                           ;kernel.c: 67:             if (readyQueue.readyQueue[i].task_time_to_waiting == 0) {
  3625   000D08  5002               	movf	os_task_time_decrease@i^0,w,c
  3626   000D0A  0D6A               	mullw	106
  3627   000D0C  0ED0               	movlw	low (_readyQueue+5)
  3628   000D0E  24F3               	addwf	243,w,c
  3629   000D10  6ED9               	movwf	fsr2l,c
  3630   000D12  0E00               	movlw	high (_readyQueue+5)
  3631   000D14  20F4               	addwfc	prodh,w,c
  3632   000D16  6EDA               	movwf	fsr2h,c
  3633   000D18  50DF               	movf	indf2,w,c
  3634   000D1A  A4D8               	btfss	status,2,c
  3635   000D1C  EF92  F006         	goto	i2u16_41
  3636   000D20  EF94  F006         	goto	i2u16_40
  3637   000D24                     i2u16_41:
  3638   000D24  EF9D  F006         	goto	i2l1189
  3639   000D28                     i2u16_40:
  3640   000D28                     
  3641                           ;kernel.c: 69:                 readyQueue.readyQueue[i].task_state = READY;
  3642   000D28  5002               	movf	os_task_time_decrease@i^0,w,c
  3643   000D2A  0D6A               	mullw	106
  3644   000D2C  0ECE               	movlw	low (_readyQueue+3)
  3645   000D2E  24F3               	addwf	243,w,c
  3646   000D30  6ED9               	movwf	fsr2l,c
  3647   000D32  0E00               	movlw	high (_readyQueue+3)
  3648   000D34  20F4               	addwfc	prodh,w,c
  3649   000D36  6EDA               	movwf	fsr2h,c
  3650   000D38  6ADF               	clrf	indf2,c
  3651   000D3A                     i2l1189:
  3652                           
  3653                           ;kernel.c: 72:     }
  3654   000D3A  2A02               	incf	os_task_time_decrease@i^0,f,c
  3655   000D3C                     i2l1191:
  3656   000D3C  EE22  F0DD         	lfsr	2,_readyQueue+530
  3657   000D40  50DE               	movf	postinc2,w,c
  3658   000D42  5C02               	subwf	os_task_time_decrease@i^0,w,c
  3659   000D44  A0D8               	btfss	status,0,c
  3660   000D46  EFA7  F006         	goto	i2u17_41
  3661   000D4A  EFA9  F006         	goto	i2u17_40
  3662   000D4E                     i2u17_41:
  3663   000D4E  EF6A  F006         	goto	i2l1183
  3664   000D52                     i2u17_40:
  3665   000D52  0012               	return		;funcret
  3666   000D54                     __end_of_os_task_time_decrease:
  3667                           	callstack 0
  3668                           
  3669                           	psect	smallconst
  3670   000800                     __psmallconst:
  3671                           	callstack 0
  3672   000800  00                 	db	0
  3673   000801  00                 	db	0	; dummy byte at the end
  3674   000800                     __smallconst    set	__psmallconst
  3675   000800                     __mediumconst   set	__psmallconst
  3676   000000                     __activetblptr  equ	0
  3677                           
  3678                           	psect	rparam
  3679   000001                     ___rparam_used  equ	1
  3680   000000                     ___param_bank   equ	0
  3681   000000                     __Lparam        equ	__Lrparam
  3682   000000                     __Hparam        equ	__Hrparam
  3683                           
  3684                           	psect	temp
  3685   00001A                     btemp:
  3686                           	callstack 0
  3687   00001A                     	ds	1
  3688   00001A                     int$flags       set	btemp
  3689   00001B                     wtemp8          set	btemp+1
  3690   00001B                     ttemp5          set	btemp+1
  3691   00001E                     ttemp6          set	btemp+4
  3692   000022                     ttemp7          set	btemp+8
  3693                           tosu	equ	0xFFF
  3694                           tosh	equ	0xFFE
  3695                           tosl	equ	0xFFD
  3696                           stkptr	equ	0xFFC
  3697                           pclatu	equ	0xFFB
  3698                           pclath	equ	0xFFA
  3699                           pcl	equ	0xFF9
  3700                           tblptru	equ	0xFF8
  3701                           tblptrh	equ	0xFF7
  3702                           tblptrl	equ	0xFF6
  3703                           tablat	equ	0xFF5
  3704                           prodh	equ	0xFF4
  3705                           prodl	equ	0xFF3
  3706                           indf0	equ	0xFEF
  3707                           postinc0	equ	0xFEE
  3708                           postdec0	equ	0xFED
  3709                           preinc0	equ	0xFEC
  3710                           plusw0	equ	0xFEB
  3711                           fsr0h	equ	0xFEA
  3712                           fsr0l	equ	0xFE9
  3713                           wreg	equ	0xFE8
  3714                           indf1	equ	0xFE7
  3715                           postinc1	equ	0xFE6
  3716                           postdec1	equ	0xFE5
  3717                           preinc1	equ	0xFE4
  3718                           plusw1	equ	0xFE3
  3719                           fsr1h	equ	0xFE2
  3720                           fsr1l	equ	0xFE1
  3721                           bsr	equ	0xFE0
  3722                           indf2	equ	0xFDF
  3723                           postinc2	equ	0xFDE
  3724                           postdec2	equ	0xFDD
  3725                           preinc2	equ	0xFDC
  3726                           plusw2	equ	0xFDB
  3727                           fsr2h	equ	0xFDA
  3728                           fsr2l	equ	0xFD9
  3729                           status	equ	0xFD8

Data Sizes:
    Strings     0
    Constant    0
    Data        0
    BSS         1045
    Persistent  0
    Stack       0

Auto Spaces:
    Space          Size  Autos    Used
    COMRAM           94     26      26
    BANK0           160    107     107
    BANK1           256      0       0
    BANK2           256      0       0
    BANK3           256      0       0
    BANK4           256      0       0
    BANK5           256      0       0
    BANK6           256      0       0
    BANK7           256      0       0

Pointer List with Targets:

    create_pipe@p$pipe_sem_read$sem_queue	PTR struct tcb[5] size(2) Largest target is 533
		 -> readyQueue(BIGRAM[533]), NULL(NULL[0]), 

    create_pipe@p$pipe_sem_write$sem_queue	PTR struct tcb[5] size(2) Largest target is 533
		 -> readyQueue(BIGRAM[533]), NULL(NULL[0]), 

    new_task$task_func	PTR FTN()void  size(2) Largest target is 1
		 -> os_idle_task(), tarefa_1(), 

    os_create_task@task_f	PTR FTN()void  size(2) Largest target is 1
		 -> os_idle_task(), tarefa_1(), 

    os_task_pos@task	PTR FTN()void  size(2) Largest target is 1
		 -> os_idle_task(), tarefa_1(), 

    ?_priority_scheduler$task_func	PTR FTN()void  size(2) Largest target is 1
		 -> os_idle_task(), tarefa_1(), 

    read_pipe@p$pipe_sem_read$sem_queue	PTR struct tcb[5] size(2) Largest target is 533
		 -> readyQueue(BIGRAM[533]), NULL(NULL[0]), 

    read_pipe@p$pipe_sem_write$sem_queue	PTR struct tcb[5] size(2) Largest target is 533
		 -> readyQueue(BIGRAM[533]), NULL(NULL[0]), 

    readyQueue$readyQueue$task_func	PTR FTN()void  size(2) Largest target is 1
		 -> os_idle_task(), tarefa_1(), 

    readyQueue$task_func	PTR FTN()void  size(2) Largest target is 1
		 -> os_idle_task(), tarefa_1(), 

    readyQueue$taskRunning	PTR struct tcb size(2) Largest target is 533
		 -> readyQueue(BIGRAM[533]), readyQueue$readyQueue(BIGRAM[530]), NULL(NULL[0]), 

    readyQueue$taskRunning$task_func	PTR FTN()void  size(2) Largest target is 1
		 -> os_idle_task(), tarefa_1(), 

    ?_rr_scheduler$task_func	PTR FTN()void  size(2) Largest target is 1
		 -> os_idle_task(), tarefa_1(), 

    ?_rr_scheduler$taskRunning	PTR struct tcb size(2) Largest target is 533
		 -> readyQueue(BIGRAM[533]), NULL(NULL[0]), 

    S55tcb$task_func	PTR FTN()void  size(2) Largest target is 1
		 -> os_idle_task(), tarefa_1(), 

    S66f_aptos$taskRunning	PTR struct tcb size(2) Largest target is 533
		 -> readyQueue(BIGRAM[533]), NULL(NULL[0]), 

    S806semaphore$sem_queue	PTR struct tcb[5] size(2) Largest target is 533
		 -> readyQueue(BIGRAM[533]), NULL(NULL[0]), 

    sem_init@s$sem_queue	PTR struct tcb[5] size(2) Largest target is 533
		 -> readyQueue(BIGRAM[533]), NULL(NULL[0]), 

    sem_post@s$sem_queue	PTR struct tcb[5] size(2) Largest target is 533
		 -> readyQueue(BIGRAM[533]), NULL(NULL[0]), 

    sem_post@s$sem_queue$task_func	PTR FTN()void  size(2) Largest target is 1
		 -> os_idle_task(), tarefa_1(), 

    sem_wait@s$sem_queue	PTR struct tcb[5] size(2) Largest target is 533
		 -> readyQueue(BIGRAM[533]), NULL(NULL[0]), 

    sem_wait@s$sem_queue$task_func	PTR FTN()void  size(2) Largest target is 1
		 -> os_idle_task(), tarefa_1(), 

    sp__priority_scheduler	PTR struct tcb size(2) Largest target is 0
		 -> NULL(NULL[0]), 

    sp__priority_scheduler$task_func	PTR FTN()void  size(2) Largest target is 1
		 -> os_idle_task(), tarefa_1(), 

    sp__rr_scheduler	PTR struct tcb size(2) Largest target is 533
		 -> readyQueue(BIGRAM[533]), readyQueue$readyQueue(BIGRAM[530]), 

    sp__SRAMalloc	PTR unsigned char  size(2) Largest target is 512
		 -> _uDynamicHeap(BIGRAM[512]), NULL(NULL[0]), 

    SRAMInitHeap@pHeap	PTR unsigned char  size(2) Largest target is 512
		 -> _uDynamicHeap(BIGRAM[512]), 

    write_pipe@p$pipe_sem_read$sem_queue	PTR struct tcb[5] size(2) Largest target is 533
		 -> readyQueue(BIGRAM[533]), NULL(NULL[0]), 

    write_pipe@p$pipe_sem_write$sem_queue	PTR struct tcb[5] size(2) Largest target is 533
		 -> readyQueue(BIGRAM[533]), NULL(NULL[0]), 


Critical Paths under _main in COMRAM

    _main->_os_create_task
    _os_start->_SRAMInitHeap
    _config_app->_config_adc
    _os_config->_os_create_task

Critical Paths under _os_idle_task in COMRAM

    None.

Critical Paths under _os_idle_task in COMRAM

    None.

Critical Paths under _tarefa_1 in COMRAM

    _tarefa_1->_adc_go
    _tarefa_1->_adc_read

Critical Paths under _tarefa_1 in COMRAM

    _tarefa_1->_adc_go
    _tarefa_1->_adc_read

Critical Paths under _ISR_TIMER_0 in COMRAM

    _scheduler->_rr_scheduler
    _rr_scheduler->___awmod

Critical Paths under _main in BANK0

    _main->_os_create_task
    _os_config->_os_create_task

Critical Paths under _os_idle_task in BANK0

    None.

Critical Paths under _os_idle_task in BANK0

    None.

Critical Paths under _tarefa_1 in BANK0

    None.

Critical Paths under _tarefa_1 in BANK0

    None.

Critical Paths under _ISR_TIMER_0 in BANK0

    None.

Critical Paths under _main in BANK1

    None.

Critical Paths under _os_idle_task in BANK1

    None.

Critical Paths under _os_idle_task in BANK1

    None.

Critical Paths under _tarefa_1 in BANK1

    None.

Critical Paths under _tarefa_1 in BANK1

    None.

Critical Paths under _ISR_TIMER_0 in BANK1

    None.

Critical Paths under _main in BANK2

    None.

Critical Paths under _os_idle_task in BANK2

    None.

Critical Paths under _os_idle_task in BANK2

    None.

Critical Paths under _tarefa_1 in BANK2

    None.

Critical Paths under _tarefa_1 in BANK2

    None.

Critical Paths under _ISR_TIMER_0 in BANK2

    None.

Critical Paths under _main in BANK3

    None.

Critical Paths under _os_idle_task in BANK3

    None.

Critical Paths under _os_idle_task in BANK3

    None.

Critical Paths under _tarefa_1 in BANK3

    None.

Critical Paths under _tarefa_1 in BANK3

    None.

Critical Paths under _ISR_TIMER_0 in BANK3

    None.

Critical Paths under _main in BANK4

    None.

Critical Paths under _os_idle_task in BANK4

    None.

Critical Paths under _os_idle_task in BANK4

    None.

Critical Paths under _tarefa_1 in BANK4

    None.

Critical Paths under _tarefa_1 in BANK4

    None.

Critical Paths under _ISR_TIMER_0 in BANK4

    None.

Critical Paths under _main in BANK5

    None.

Critical Paths under _os_idle_task in BANK5

    None.

Critical Paths under _os_idle_task in BANK5

    None.

Critical Paths under _tarefa_1 in BANK5

    None.

Critical Paths under _tarefa_1 in BANK5

    None.

Critical Paths under _ISR_TIMER_0 in BANK5

    None.

Critical Paths under _main in BANK6

    None.

Critical Paths under _os_idle_task in BANK6

    None.

Critical Paths under _os_idle_task in BANK6

    None.

Critical Paths under _tarefa_1 in BANK6

    None.

Critical Paths under _tarefa_1 in BANK6

    None.

Critical Paths under _ISR_TIMER_0 in BANK6

    None.

Critical Paths under _main in BANK7

    None.

Critical Paths under _os_idle_task in BANK7

    None.

Critical Paths under _os_idle_task in BANK7

    None.

Critical Paths under _tarefa_1 in BANK7

    None.

Critical Paths under _tarefa_1 in BANK7

    None.

Critical Paths under _ISR_TIMER_0 in BANK7

    None.

Call Graph Tables:

 ---------------------------------------------------------------------------------
 (Depth) Function   	        Calls       Base Space   Used Autos Params    Refs
 ---------------------------------------------------------------------------------
 (0) _main                                                 0     0      0     723
                          _os_config
                     _os_create_task
                           _os_start
 ---------------------------------------------------------------------------------
 (1) _os_start                                             0     0      0     187
                       _SRAMInitHeap
                    _conf_interrupts
                       _conf_timer_0
                         _config_app
 ---------------------------------------------------------------------------------
 (2) _config_app                                           0     0      0      82
                         _config_adc
                        _set_channel
                           _set_port
 ---------------------------------------------------------------------------------
 (3) _set_port                                             1     1      0      15
                                              5 COMRAM     1     1      0
 ---------------------------------------------------------------------------------
 (3) _set_channel                                          2     2      0      15
                                              5 COMRAM     2     2      0
 ---------------------------------------------------------------------------------
 (3) _config_adc                                           3     2      1      52
                                              5 COMRAM     3     2      1
 ---------------------------------------------------------------------------------
 (2) _conf_timer_0                                         0     0      0       0
 ---------------------------------------------------------------------------------
 (2) _conf_interrupts                                      0     0      0       0
 ---------------------------------------------------------------------------------
 (2) _SRAMInitHeap                                         4     4      0     105
                                              5 COMRAM     4     4      0
 ---------------------------------------------------------------------------------
 (1) _os_config                                            0     0      0     268
                     _os_create_task
 ---------------------------------------------------------------------------------
 (1) _os_create_task                                     111   108      3     268
                                              5 COMRAM     4     1      3
                                              0 BANK0    107   107      0
 ---------------------------------------------------------------------------------
 Estimated maximum stack depth 3
 ---------------------------------------------------------------------------------
 (Depth) Function   	        Calls       Base Space   Used Autos Params    Refs
 ---------------------------------------------------------------------------------
 (4) _os_idle_task                                         1     1      0       0
                                              0 COMRAM     1     1      0
 ---------------------------------------------------------------------------------
 Estimated maximum stack depth 4
 ---------------------------------------------------------------------------------
 (Depth) Function   	        Calls       Base Space   Used Autos Params    Refs
 ---------------------------------------------------------------------------------
 (4) _os_idle_task                                         1     1      0       0
                                              0 COMRAM     1     1      0
 ---------------------------------------------------------------------------------
 Estimated maximum stack depth 4
 ---------------------------------------------------------------------------------
 (Depth) Function   	        Calls       Base Space   Used Autos Params    Refs
 ---------------------------------------------------------------------------------
 (4) _tarefa_1                                             3     3      0     113
                                              2 COMRAM     3     3      0
                             _adc_go
                           _adc_read
 ---------------------------------------------------------------------------------
 (5) _adc_read                                             2     0      2       0
                                              0 COMRAM     2     0      2
 ---------------------------------------------------------------------------------
 (5) _adc_go                                               2     0      2      23
                                              0 COMRAM     2     0      2
 ---------------------------------------------------------------------------------
 Estimated maximum stack depth 5
 ---------------------------------------------------------------------------------
 (Depth) Function   	        Calls       Base Space   Used Autos Params    Refs
 ---------------------------------------------------------------------------------
 (4) _tarefa_1                                             3     3      0     113
                                              2 COMRAM     3     3      0
                             _adc_go
                           _adc_read
 ---------------------------------------------------------------------------------
 (5) _adc_read                                             2     0      2       0
                                              0 COMRAM     2     0      2
 ---------------------------------------------------------------------------------
 (5) _adc_go                                               2     0      2      23
                                              0 COMRAM     2     0      2
 ---------------------------------------------------------------------------------
 Estimated maximum stack depth 5
 ---------------------------------------------------------------------------------
 (Depth) Function   	        Calls       Base Space   Used Autos Params    Refs
 ---------------------------------------------------------------------------------
 (6) _ISR_TIMER_0                                         13    13      0     608
                                             12 COMRAM    13    13      0
              _os_task_time_decrease
                          _scheduler
 ---------------------------------------------------------------------------------
 (7) _scheduler                                            0     0      0     533
                       _rr_scheduler
 ---------------------------------------------------------------------------------
 (8) _rr_scheduler                                         6     4      2     533
                                              6 COMRAM     6     4      2
                            ___awmod
                        _os_task_pos
 ---------------------------------------------------------------------------------
 (9) _os_task_pos                                          5     3      2      91
                                              0 COMRAM     5     3      2
 ---------------------------------------------------------------------------------
 (9) ___awmod                                              6     2      4     306
                                              0 COMRAM     6     2      4
 ---------------------------------------------------------------------------------
 (7) _os_task_time_decrease                                2     2      0      75
                                              0 COMRAM     2     2      0
 ---------------------------------------------------------------------------------
 Estimated maximum stack depth 9
 ---------------------------------------------------------------------------------

 Call Graph Graphs:

 _main (ROOT)
   _os_config
     _os_create_task
   _os_create_task
   _os_start
     _SRAMInitHeap
     _conf_interrupts
     _conf_timer_0
     _config_app
       _config_adc
       _set_channel
       _set_port

 _os_idle_task (ROOT)

 _os_idle_task (ROOT)

 _tarefa_1 (ROOT)
   _adc_go
   _adc_read

 _tarefa_1 (ROOT)
   _adc_go
   _adc_read

 _ISR_TIMER_0 (ROOT)
   _os_task_time_decrease
   _scheduler
     _rr_scheduler
       ___awmod
       _os_task_pos

Address spaces:
Name               Size   Autos  Total    Usage
BIGRAM            2047      0    1045     51.1%
BITBANK7           256      0       0      0.0%
BANK7              256      0       0      0.0%
BITBANK6           256      0       0      0.0%
BANK6              256      0       0      0.0%
BITBANK5           256      0       0      0.0%
BANK5              256      0       0      0.0%
BITBANK4           256      0       0      0.0%
BANK4              256      0       0      0.0%
BITBANK3           256      0       0      0.0%
BANK3              256      0       0      0.0%
BITBANK2           256      0       0      0.0%
BANK2              256      0       0      0.0%
BITBANK1           256      0       0      0.0%
BANK1              256      0       0      0.0%
BITBANK0           160      0       0      0.0%
BANK0              160    107     107     66.9%
BITCOMRAM           94      0       0      0.0%
COMRAM              94     26      26     27.7%
BITBIGSFRh          61      0       0      0.0%
BITBIGSFRlh         53      0       0      0.0%
BITBIGSFRlll        35      0       0      0.0%
BITBIGSFRllh         8      0       0      0.0%
STACK                0      0       0      0.0%
DATA                 0      0    1178      0.0%


Microchip Technology PIC18 Macro Assembler V3.00 build 20241204225717 
Symbol Table                                                                                   Mon Sep 29 15:59:11 2025

                           l13 0EC4                             l14 0EC4                             l41 0EA8  
                           l44 0F86                             l88 0F28                            l211 0FB2  
                          l116 0E54                            l208 0F44                            l315 0DB6  
                          l341 0F94                            l344 0EEC                            l338 0F72  
                          _BSR 0FE0                            u100 0D78                            u101 0D74  
__end_of_os_task_time_decrease 0D54                            u731 0E42                            _TOS 0FFD  
                 ___awmod@sign 0006                            prod 0FF3                            wreg 0FE8  
           set_channel@channel 0007              SRAMInitHeap@pHeap 0006              SRAMInitHeap@count 0008  
                         l1111 0D5C                           l1121 0D9C                           l1113 0D62  
                         l1123 0DA8                           l1115 0D78                           l1107 0FB0  
                         l1117 0D84                           l1109 0D54                           l1141 0F42  
                         l1133 0F2A                           l1045 0F60                           l1119 0D8C  
                         l1135 0F2E                           l1047 0F8A                           l1137 0F3E  
                         l1139 0F40                           l1261 0E56                           l1263 0E58  
                         l1611 0E1C                           l1621 0E28                           l1613 0E20  
                         l1605 0E0C                           l1623 0E4A                           l1615 0E22  
                         l1607 0E10                           l1617 0E24                           l1609 0E18  
                         l1625 0F0C                           l1731 0B6A                           l1619 0E26  
                         l1627 0F22                           l1741 0BD8                           l1733 0B6A  
                         l1629 0F26                           l1661 0F78                           l1743 0BE0  
                         l1735 0B76                           l1655 0E84                           l1567 0ECE  
                         l1663 0F7C                           l1727 0EAA                           l1745 0BFC  
                         l1737 0B96                           l1657 0E96                           l1665 0F80  
                         l1729 0EC0                           l1747 0C14                           l1739 0BBC  
                         l1667 0F84                           l1659 0F74                           i2l56 0E06  
                         i2l65 0D52                           _TMR0 0FD6                           _WREG 0FE8  
                         _main 0EAA                           fsr1h 0FE2                           fsr2h 0FDA  
                         indf1 0FE7                           indf2 0FDF                           fsr1l 0FE1  
                         fsr2l 0FD9                 ??_conf_timer_0 0006                           btemp 001A  
                         prodh 0FF4                           prodl 0FF3                           start 000E  
                 ___param_bank 0000                          ?_main 0001                          _ADRES 0FC3  
              __end_of___awmod 0CCC                          i1l350 0F46                          i1l352 0F54  
                        i1l353 0F5C                          i1l347 0FAE                          i2l230 0A70  
                        i2l227 09D6                          i2l183 0FA2                          i2l600 0CCA  
                        i2l176 0B68                          u27_20 0E68                          u27_21 0E62  
                        u27_26 0E6A                          u90_20 0BFC                          u90_21 0BF8  
                        u91_20 0C14                          u91_21 0C10                          u87_20 0B86  
                        u87_21 0B80                          u87_26 0B88                          u88_20 0BBC  
                        u88_21 0BB8                          u89_20 0BD8                          u89_21 0BD4  
                config_adc@tad 0008                          plusw1 0FE3                          plusw2 0FDB  
                        ttemp5 001B                          ttemp6 001E                          ttemp7 0022  
                        status 0FD8                          wtemp8 001B                __initialization 0EEE  
                 ?_ISR_TIMER_0 0001                   __end_of_main 0ECC                         ??_main 000A  
                __activetblptr 0000               __end_of_adc_read 0F5E                         i1l1671 0F46  
                       i1l1669 0FA4                         i2l1181 0CCC                         i2l1183 0CD4  
                       i2l1191 0D3C                         i2l1185 0CF6                         i2l1601 0CC2  
                       i2l1187 0D28                         i2l1189 0D3A                         i2l1551 0DB8  
                       i2l1631 0A8C                         i2l1553 0DBE                         i2l1561 0DEE  
                       i2l1641 0AF4                         i2l1633 0AAA                         i2l1571 0C20  
                       i2l1563 0E04                         i2l1555 0DE6                         i2l1651 0B58  
                       i2l1643 0B04                         i2l1635 0AAC                         i2l1581 0C50  
                       i2l1573 0C2E                         i2l1637 0ACA                         i2l1591 0C96  
                       i2l1583 0C62                         i2l1575 0C36                         i2l1559 0DEC  
                       i2l1639 0AF2                         i2l1647 0B10                         i2l1593 0C9E  
                       i2l1585 0C6A                         i2l1577 0C3A                         i2l1569 0C1E  
                       i2l1649 0B30                         i2l1673 0F96                         i2l1595 0CA4  
                       i2l1587 0C72                         i2l1579 0C48                         i2l1589 0C80  
                       i2l1597 0CAA                         i2l1861 082E                         i2l1599 0CBA  
                       i2l1871 0908                         i2l1863 0832                         i2l1881 098C  
                       i2l1873 0918                         i2l1865 0852                         i2l1857 081C  
                       i2l1891 0A3A                         i2l1883 09AE                         i2l1867 08A4  
                       i2l1875 092A                         i2l1859 082C                         i2l1893 0A5A  
                       i2l1885 09B0                         i2l1877 092E                         i2l1869 08F4  
                       i2l1887 09D8                         i2l1879 094E                         i2l1895 0A6E  
                       i2l1889 09EA                         _STATUS 0FD8                         _STKPTR 0FFC  
                 ?_set_channel 0001                   ?_os_task_pos 0001                 config_adc@cclk 0006  
                       _adc_go 0FA4                      ??___awmod 0005                         clear_0 0EF6  
              ___awmod@divisor 0003                         isa$std 0001                ___awmod@counter 0005  
             __end_of_tarefa_1 0C1E           __end_of_conf_timer_0 0F46               __end_of_set_port 0F96  
             __end_of_os_start 0F88                   __mediumconst 0800                     __accesstop 0060  
      __end_of__initialization 0F02                  ___rparam_used 0001                 _os_create_task 0E08  
               __pcstackCOMRAM 0001               os_create_task@id 0060                  __uDynamicHeap 02E0  
       __end_of_os_create_task 0E56                        ?_adc_go 0001                  ?_os_idle_task 0001  
                    ?_adc_read 0001                     _config_adc 0ECC          _os_task_time_decrease 0CCC  
                   _config_app 0F0C                    tarefa_1@pot 0004                        i2u15_40 0CF6  
                      i2u15_41 0CF2                        i2u16_40 0D28                        i2u16_41 0D24  
                      i2u17_40 0D52                        i2u17_41 0D4E                        i2u70_40 0C80  
                      i2u70_41 0C7C                        i1u78_25 0FAC                        i1u78_26 0FAE  
                      i1u79_20 0F54                        i1u79_21 0F50                        i2u71_40 0C96  
                      i2u71_41 0C92                        i2u72_40 0CBA                        i2u72_41 0CB6  
                      i2u65_40 0DE6                        i2u65_41 0DE2                        i2u66_40 0E04  
                      i2u74_40 0AF2                        i2u66_41 0E00                        i2u74_41 0AEE  
                      i2u67_40 0C2E                        i2u75_40 0B04                        i2u67_41 0C2A  
                      i2u75_41 0B00                        i2u68_40 0C48                        i2u76_40 0B30  
                      i2u68_41 0C44                        i2u76_41 0B2C                        i2u69_40 0C62  
                      i2u77_40 0B58                        i2u69_41 0C5E                        i2u77_41 0B54  
              ?_os_create_task 0006                      ?_tarefa_1 0001                        __Hparam 0000  
            ??_conf_interrupts 0006                        __Lparam 0000                      ?_set_port 0001  
                    ?_os_start 0001                        ___awmod 0C1E                   __psmallconst 0800  
               ??_os_idle_task 0001                        __pcinit 0EEE                        __ramtop 0800  
                ?_SRAMInitHeap 0001                     ??_adc_read 0003                        __ptext0 0EAA  
                      __ptext1 0F74                        __ptext2 0F0C                        __ptext3 0F88  
                      __ptext4 0F5E                        __ptext5 0ECC                        __ptext6 0F2A  
                      __ptext7 0FB0                        __ptext8 0D54                        __ptext9 0E84  
                    _T0CONbits 0FD5                     _readyQueue 00CB               ___awmod@dividend 0001  
          os_create_task@prior 0008              __end_of_scheduler 0FA4                 __pintcode_body 0802  
         end_of_initialization 0F02              __end_of_os_config 0EAA                        int_func 0802  
                 _conf_timer_0 0F2A         os_create_task@new_task 0061                     ??_tarefa_1 0003  
                   ??_set_port 0006                     ??_os_start 000A                        postdec1 0FE5  
                      postdec2 0FDD                  ?_rr_scheduler 0007                        postinc0 0FEE  
                      postinc1 0FE6                        postinc2 0FDE                 ??_SRAMInitHeap 0006  
                    _PORTDbits 0F83         ?_os_task_time_decrease 0001                    ?_config_adc 0006  
                  ?_config_app 0001                      _TRISCbits 0F94                      _TRISDbits 0F95  
               ??_rr_scheduler 0009                 __end_of_adc_go 0FB0            start_initialization 0EEE  
                adc_go@go_done 0001           __end_of_os_idle_task 0E84                       ??_adc_go 0003  
                  __pbssBIGRAM 00CB   rr_scheduler@pos_task_running 000C                  __pcstackBANK0 0060  
              _conf_interrupts 0FB0               ??_os_create_task 0009           __end_of_SRAMInitHeap 0DB8  
                ??_ISR_TIMER_0 000D                      __pintcode 0008                       ?___awmod 0001  
                  __smallconst 0800           __end_of_rr_scheduler 0B6A                      _scheduler 0F96  
                ??_set_channel 0006                       _LATCbits 0F8B                       _LATDbits 0F8C  
                    _os_config 0E84                       i2u110_40 094E                       i2u110_41 094A  
                     i2u111_40 09AE                       i2u111_41 09AA                       i2u112_40 0A5A  
                     i2u112_41 0A56                       i2u107_40 082C                       i2u107_41 0828  
                     i2u108_40 0852                       i2u108_41 084E                       i2u109_40 0918  
                     i2u109_41 0914                  ??_os_task_pos 0003         os_task_time_decrease@i 0002  
      ??_os_task_time_decrease 0001                     _ADCON0bits 0FC2            __end_of_ISR_TIMER_0 0A8C  
                   _ADCON1bits 0FC1                     _ADCON2bits 0FC0        __end_of_conf_interrupts 0FB4  
                 ??_config_adc 0007                   ??_config_app 0009                     ?_scheduler 0001  
                   ?_os_config 0001                       __Hrparam 0000                       __Lrparam 0000  
           __end_of_config_adc 0EEE            __end_of_set_channel 0F74             __end_of_config_app 0F2A  
          __end_of_os_task_pos 0E08                       _adc_read 0F46                   _os_idle_task 0E56  
                     __ptext10 0E08                       __ptext11 0E56                       __ptext20 0CCC  
                     __ptext12 0B6A                       __ptext13 0F46                       __ptext14 0FA4  
                     __ptext16 0F96                       __ptext17 0A8C                       __ptext18 0DB8  
                     __ptext19 0C1E                       _tarefa_1 0B6A           os_create_task@task_f 0006  
                     _set_port 0F88                       _os_start 0F74                       isa$xinst 0000  
                  _ISR_TIMER_0 0008                       int$flags 001A                   os_task_pos@i 0005  
                 _SRAMInitHeap 0D54               ?_conf_interrupts 0001                     _INTCONbits 0FF2  
                 set_port@port 0006                       intlevel1 0000                       intlevel2 0000  
                  ??_scheduler 000D                    _set_channel 0F5E                    ??_os_config 000A  
                  _os_task_pos 0DB8                   _rr_scheduler 0A8C      rr_scheduler@idle_selected 000B  
                ?_conf_timer_0 0001                os_task_pos@task 0001  
